ARM GAS  C:\Users\anmh1\AppData\Local\Temp\ccJg1Ucb.s 			page 1


   1              		.cpu cortex-m4
   2              		.eabi_attribute 27, 1
   3              		.eabi_attribute 28, 1
   4              		.eabi_attribute 20, 1
   5              		.eabi_attribute 21, 1
   6              		.eabi_attribute 23, 3
   7              		.eabi_attribute 24, 1
   8              		.eabi_attribute 25, 1
   9              		.eabi_attribute 26, 1
  10              		.eabi_attribute 30, 1
  11              		.eabi_attribute 34, 1
  12              		.eabi_attribute 18, 4
  13              		.file	"AML_MotorControl.c"
  14              		.text
  15              	.Ltext0:
  16              		.cfi_sections	.debug_frame
  17              		.section	.text.AML_MotorControl_Setup,"ax",%progbits
  18              		.align	1
  19              		.global	AML_MotorControl_Setup
  20              		.arch armv7e-m
  21              		.syntax unified
  22              		.thumb
  23              		.thumb_func
  24              		.fpu fpv4-sp-d16
  26              	AML_MotorControl_Setup:
  27              	.LFB235:
  28              		.file 1 "Core/Src/AML_MotorControl.c"
   1:Core/Src/AML_MotorControl.c **** #include "AML_MotorControl.h"
   2:Core/Src/AML_MotorControl.c **** 
   3:Core/Src/AML_MotorControl.c **** extern TIM_HandleTypeDef htim2;
   4:Core/Src/AML_MotorControl.c **** short direction = 0;
   5:Core/Src/AML_MotorControl.c **** 
   6:Core/Src/AML_MotorControl.c **** 
   7:Core/Src/AML_MotorControl.c **** void AML_MotorControl_Setup()
   8:Core/Src/AML_MotorControl.c **** {
  29              		.loc 1 8 1 view -0
  30              		.cfi_startproc
  31              		@ args = 0, pretend = 0, frame = 0
  32              		@ frame_needed = 0, uses_anonymous_args = 0
  33 0000 10B5     		push	{r4, lr}
  34              		.cfi_def_cfa_offset 8
  35              		.cfi_offset 4, -8
  36              		.cfi_offset 14, -4
   9:Core/Src/AML_MotorControl.c ****     HAL_TIM_Base_Start(&htim2);
  37              		.loc 1 9 5 view .LVU1
  38 0002 094C     		ldr	r4, .L3
  39 0004 2046     		mov	r0, r4
  40 0006 FFF7FEFF 		bl	HAL_TIM_Base_Start
  41              	.LVL0:
  10:Core/Src/AML_MotorControl.c ****     HAL_TIM_PWM_Start(&htim2, TIM_CHANNEL_1);
  42              		.loc 1 10 5 view .LVU2
  43 000a 0021     		movs	r1, #0
  44 000c 2046     		mov	r0, r4
  45 000e FFF7FEFF 		bl	HAL_TIM_PWM_Start
  46              	.LVL1:
  11:Core/Src/AML_MotorControl.c ****     HAL_TIM_PWM_Start(&htim2, TIM_CHANNEL_2);
  47              		.loc 1 11 5 view .LVU3
ARM GAS  C:\Users\anmh1\AppData\Local\Temp\ccJg1Ucb.s 			page 2


  48 0012 0421     		movs	r1, #4
  49 0014 2046     		mov	r0, r4
  50 0016 FFF7FEFF 		bl	HAL_TIM_PWM_Start
  51              	.LVL2:
  12:Core/Src/AML_MotorControl.c ****     HAL_GPIO_WritePin(STBY_GPIO_Port, STBY_Pin, GPIO_PIN_SET);
  52              		.loc 1 12 5 view .LVU4
  53 001a 0122     		movs	r2, #1
  54 001c 4FF48051 		mov	r1, #4096
  55 0020 0248     		ldr	r0, .L3+4
  56 0022 FFF7FEFF 		bl	HAL_GPIO_WritePin
  57              	.LVL3:
  13:Core/Src/AML_MotorControl.c **** }
  58              		.loc 1 13 1 is_stmt 0 view .LVU5
  59 0026 10BD     		pop	{r4, pc}
  60              	.L4:
  61              		.align	2
  62              	.L3:
  63 0028 00000000 		.word	htim2
  64 002c 00080240 		.word	1073874944
  65              		.cfi_endproc
  66              	.LFE235:
  68              		.section	.text.AML_MotorControl_SetLeftSpeed,"ax",%progbits
  69              		.align	1
  70              		.global	AML_MotorControl_SetLeftSpeed
  71              		.syntax unified
  72              		.thumb
  73              		.thumb_func
  74              		.fpu fpv4-sp-d16
  76              	AML_MotorControl_SetLeftSpeed:
  77              	.LVL4:
  78              	.LFB236:
  14:Core/Src/AML_MotorControl.c **** 
  15:Core/Src/AML_MotorControl.c **** void AML_MotorControl_SetLeftSpeed(int16_t PWMValue)
  16:Core/Src/AML_MotorControl.c **** {
  79              		.loc 1 16 1 is_stmt 1 view -0
  80              		.cfi_startproc
  81              		@ args = 0, pretend = 0, frame = 0
  82              		@ frame_needed = 0, uses_anonymous_args = 0
  83              		.loc 1 16 1 is_stmt 0 view .LVU7
  84 0000 70B5     		push	{r4, r5, r6, lr}
  85              		.cfi_def_cfa_offset 16
  86              		.cfi_offset 4, -16
  87              		.cfi_offset 5, -12
  88              		.cfi_offset 6, -8
  89              		.cfi_offset 14, -4
  17:Core/Src/AML_MotorControl.c ****     if (PWMValue > 0)
  90              		.loc 1 17 5 is_stmt 1 view .LVU8
  91              		.loc 1 17 8 is_stmt 0 view .LVU9
  92 0002 041E     		subs	r4, r0, #0
  93 0004 12DC     		bgt	.L10
  18:Core/Src/AML_MotorControl.c ****     {
  19:Core/Src/AML_MotorControl.c ****         HAL_GPIO_WritePin(AIN1_GPIO_Port, AIN1_Pin, direction);
  20:Core/Src/AML_MotorControl.c ****         HAL_GPIO_WritePin(AIN2_GPIO_Port, AIN2_Pin, !direction);
  21:Core/Src/AML_MotorControl.c ****         __HAL_TIM_SET_COMPARE(&htim2, TIM_CHANNEL_1, PWMValue);
  22:Core/Src/AML_MotorControl.c ****     }
  23:Core/Src/AML_MotorControl.c ****     else if (PWMValue < 0)
  94              		.loc 1 23 10 is_stmt 1 view .LVU10
ARM GAS  C:\Users\anmh1\AppData\Local\Temp\ccJg1Ucb.s 			page 3


  95              		.loc 1 23 13 is_stmt 0 view .LVU11
  96 0006 002C     		cmp	r4, #0
  97 0008 24DB     		blt	.L11
  24:Core/Src/AML_MotorControl.c ****     {
  25:Core/Src/AML_MotorControl.c ****         HAL_GPIO_WritePin(AIN1_GPIO_Port, AIN1_Pin, !direction);
  26:Core/Src/AML_MotorControl.c ****         HAL_GPIO_WritePin(AIN2_GPIO_Port, AIN2_Pin, direction);
  27:Core/Src/AML_MotorControl.c ****         __HAL_TIM_SET_COMPARE(&htim2, TIM_CHANNEL_1, PWMValue);
  28:Core/Src/AML_MotorControl.c ****     }
  29:Core/Src/AML_MotorControl.c ****     else if (!PWMValue)
  98              		.loc 1 29 10 is_stmt 1 view .LVU12
  99              		.loc 1 29 13 is_stmt 0 view .LVU13
 100 000a 14BB     		cbnz	r4, .L5
  30:Core/Src/AML_MotorControl.c ****     {
  31:Core/Src/AML_MotorControl.c ****         HAL_GPIO_WritePin(AIN1_GPIO_Port, AIN1_Pin, GPIO_PIN_RESET);
 101              		.loc 1 31 9 is_stmt 1 view .LVU14
 102 000c 1B4C     		ldr	r4, .L12
 103 000e 0022     		movs	r2, #0
 104 0010 8021     		movs	r1, #128
 105 0012 2046     		mov	r0, r4
 106              	.LVL5:
 107              		.loc 1 31 9 is_stmt 0 view .LVU15
 108 0014 FFF7FEFF 		bl	HAL_GPIO_WritePin
 109              	.LVL6:
  32:Core/Src/AML_MotorControl.c ****         HAL_GPIO_WritePin(AIN2_GPIO_Port, AIN2_Pin, GPIO_PIN_RESET);
 110              		.loc 1 32 9 is_stmt 1 view .LVU16
 111 0018 0022     		movs	r2, #0
 112 001a 2021     		movs	r1, #32
 113 001c 2046     		mov	r0, r4
 114 001e FFF7FEFF 		bl	HAL_GPIO_WritePin
 115              	.LVL7:
  33:Core/Src/AML_MotorControl.c ****         __HAL_TIM_SET_COMPARE(&htim2, TIM_CHANNEL_1, 0);
 116              		.loc 1 33 9 view .LVU17
 117 0022 174B     		ldr	r3, .L12+4
 118 0024 1B68     		ldr	r3, [r3]
 119 0026 0022     		movs	r2, #0
 120 0028 5A63     		str	r2, [r3, #52]
  34:Core/Src/AML_MotorControl.c ****     }
  35:Core/Src/AML_MotorControl.c **** 
  36:Core/Src/AML_MotorControl.c **** }
 121              		.loc 1 36 1 is_stmt 0 view .LVU18
 122 002a 12E0     		b	.L5
 123              	.LVL8:
 124              	.L10:
  19:Core/Src/AML_MotorControl.c ****         HAL_GPIO_WritePin(AIN2_GPIO_Port, AIN2_Pin, !direction);
 125              		.loc 1 19 9 is_stmt 1 view .LVU19
 126 002c 154E     		ldr	r6, .L12+8
 127 002e 134D     		ldr	r5, .L12
 128 0030 3278     		ldrb	r2, [r6]	@ zero_extendqisi2
 129 0032 8021     		movs	r1, #128
 130 0034 2846     		mov	r0, r5
 131              	.LVL9:
  19:Core/Src/AML_MotorControl.c ****         HAL_GPIO_WritePin(AIN2_GPIO_Port, AIN2_Pin, !direction);
 132              		.loc 1 19 9 is_stmt 0 view .LVU20
 133 0036 FFF7FEFF 		bl	HAL_GPIO_WritePin
 134              	.LVL10:
  20:Core/Src/AML_MotorControl.c ****         __HAL_TIM_SET_COMPARE(&htim2, TIM_CHANNEL_1, PWMValue);
 135              		.loc 1 20 9 is_stmt 1 view .LVU21
ARM GAS  C:\Users\anmh1\AppData\Local\Temp\ccJg1Ucb.s 			page 4


 136 003a B6F90020 		ldrsh	r2, [r6]
 137 003e B2FA82F2 		clz	r2, r2
 138 0042 5209     		lsrs	r2, r2, #5
 139 0044 2021     		movs	r1, #32
 140 0046 2846     		mov	r0, r5
 141 0048 FFF7FEFF 		bl	HAL_GPIO_WritePin
 142              	.LVL11:
  21:Core/Src/AML_MotorControl.c ****     }
 143              		.loc 1 21 9 view .LVU22
 144 004c 0C4B     		ldr	r3, .L12+4
 145 004e 1B68     		ldr	r3, [r3]
 146 0050 5C63     		str	r4, [r3, #52]
 147              	.L5:
 148              		.loc 1 36 1 is_stmt 0 view .LVU23
 149 0052 70BD     		pop	{r4, r5, r6, pc}
 150              	.LVL12:
 151              	.L11:
  25:Core/Src/AML_MotorControl.c ****         HAL_GPIO_WritePin(AIN2_GPIO_Port, AIN2_Pin, direction);
 152              		.loc 1 25 9 is_stmt 1 view .LVU24
 153 0054 0B4E     		ldr	r6, .L12+8
 154 0056 B6F90020 		ldrsh	r2, [r6]
 155 005a 084D     		ldr	r5, .L12
 156 005c B2FA82F2 		clz	r2, r2
 157 0060 5209     		lsrs	r2, r2, #5
 158 0062 8021     		movs	r1, #128
 159 0064 2846     		mov	r0, r5
 160              	.LVL13:
  25:Core/Src/AML_MotorControl.c ****         HAL_GPIO_WritePin(AIN2_GPIO_Port, AIN2_Pin, direction);
 161              		.loc 1 25 9 is_stmt 0 view .LVU25
 162 0066 FFF7FEFF 		bl	HAL_GPIO_WritePin
 163              	.LVL14:
  26:Core/Src/AML_MotorControl.c ****         __HAL_TIM_SET_COMPARE(&htim2, TIM_CHANNEL_1, PWMValue);
 164              		.loc 1 26 9 is_stmt 1 view .LVU26
 165 006a 3278     		ldrb	r2, [r6]	@ zero_extendqisi2
 166 006c 2021     		movs	r1, #32
 167 006e 2846     		mov	r0, r5
 168 0070 FFF7FEFF 		bl	HAL_GPIO_WritePin
 169              	.LVL15:
  27:Core/Src/AML_MotorControl.c ****     }
 170              		.loc 1 27 9 view .LVU27
 171 0074 024B     		ldr	r3, .L12+4
 172 0076 1B68     		ldr	r3, [r3]
 173 0078 5C63     		str	r4, [r3, #52]
 174 007a EAE7     		b	.L5
 175              	.L13:
 176              		.align	2
 177              	.L12:
 178 007c 000C0240 		.word	1073875968
 179 0080 00000000 		.word	htim2
 180 0084 00000000 		.word	.LANCHOR0
 181              		.cfi_endproc
 182              	.LFE236:
 184              		.section	.text.AML_MotorControl_SetRightSpeed,"ax",%progbits
 185              		.align	1
 186              		.global	AML_MotorControl_SetRightSpeed
 187              		.syntax unified
 188              		.thumb
ARM GAS  C:\Users\anmh1\AppData\Local\Temp\ccJg1Ucb.s 			page 5


 189              		.thumb_func
 190              		.fpu fpv4-sp-d16
 192              	AML_MotorControl_SetRightSpeed:
 193              	.LVL16:
 194              	.LFB237:
  37:Core/Src/AML_MotorControl.c **** 
  38:Core/Src/AML_MotorControl.c **** void AML_MotorControl_SetRightSpeed(int16_t PWMValue)
  39:Core/Src/AML_MotorControl.c **** {
 195              		.loc 1 39 1 view -0
 196              		.cfi_startproc
 197              		@ args = 0, pretend = 0, frame = 0
 198              		@ frame_needed = 0, uses_anonymous_args = 0
 199              		.loc 1 39 1 is_stmt 0 view .LVU29
 200 0000 70B5     		push	{r4, r5, r6, lr}
 201              		.cfi_def_cfa_offset 16
 202              		.cfi_offset 4, -16
 203              		.cfi_offset 5, -12
 204              		.cfi_offset 6, -8
 205              		.cfi_offset 14, -4
  40:Core/Src/AML_MotorControl.c ****     if (PWMValue > 0)
 206              		.loc 1 40 5 is_stmt 1 view .LVU30
 207              		.loc 1 40 8 is_stmt 0 view .LVU31
 208 0002 041E     		subs	r4, r0, #0
 209 0004 12DC     		bgt	.L19
  41:Core/Src/AML_MotorControl.c ****     {
  42:Core/Src/AML_MotorControl.c ****         HAL_GPIO_WritePin(BIN1_GPIO_Port, BIN1_Pin, direction);
  43:Core/Src/AML_MotorControl.c ****         HAL_GPIO_WritePin(BIN2_GPIO_Port, BIN2_Pin, !direction);
  44:Core/Src/AML_MotorControl.c ****         __HAL_TIM_SET_COMPARE(&htim2, TIM_CHANNEL_2, PWMValue);
  45:Core/Src/AML_MotorControl.c ****     }
  46:Core/Src/AML_MotorControl.c ****     else if (PWMValue < 0)
 210              		.loc 1 46 10 is_stmt 1 view .LVU32
 211              		.loc 1 46 13 is_stmt 0 view .LVU33
 212 0006 002C     		cmp	r4, #0
 213 0008 24DB     		blt	.L20
  47:Core/Src/AML_MotorControl.c ****     {
  48:Core/Src/AML_MotorControl.c ****         HAL_GPIO_WritePin(BIN1_GPIO_Port, BIN1_Pin, !direction);
  49:Core/Src/AML_MotorControl.c ****         HAL_GPIO_WritePin(BIN2_GPIO_Port, BIN2_Pin, direction);
  50:Core/Src/AML_MotorControl.c ****         __HAL_TIM_SET_COMPARE(&htim2, TIM_CHANNEL_2, PWMValue);
  51:Core/Src/AML_MotorControl.c ****     }
  52:Core/Src/AML_MotorControl.c ****     else if (!PWMValue)
 214              		.loc 1 52 10 is_stmt 1 view .LVU34
 215              		.loc 1 52 13 is_stmt 0 view .LVU35
 216 000a 14BB     		cbnz	r4, .L14
  53:Core/Src/AML_MotorControl.c ****     {
  54:Core/Src/AML_MotorControl.c ****         HAL_GPIO_WritePin(BIN1_GPIO_Port, BIN1_Pin, GPIO_PIN_RESET);
 217              		.loc 1 54 9 is_stmt 1 view .LVU36
 218 000c 1B4C     		ldr	r4, .L21
 219 000e 0022     		movs	r2, #0
 220 0010 0821     		movs	r1, #8
 221 0012 2046     		mov	r0, r4
 222              	.LVL17:
 223              		.loc 1 54 9 is_stmt 0 view .LVU37
 224 0014 FFF7FEFF 		bl	HAL_GPIO_WritePin
 225              	.LVL18:
  55:Core/Src/AML_MotorControl.c ****         HAL_GPIO_WritePin(BIN2_GPIO_Port, BIN2_Pin, GPIO_PIN_RESET);
 226              		.loc 1 55 9 is_stmt 1 view .LVU38
 227 0018 0022     		movs	r2, #0
ARM GAS  C:\Users\anmh1\AppData\Local\Temp\ccJg1Ucb.s 			page 6


 228 001a 0221     		movs	r1, #2
 229 001c 2046     		mov	r0, r4
 230 001e FFF7FEFF 		bl	HAL_GPIO_WritePin
 231              	.LVL19:
  56:Core/Src/AML_MotorControl.c ****         __HAL_TIM_SET_COMPARE(&htim2, TIM_CHANNEL_2, 0);
 232              		.loc 1 56 9 view .LVU39
 233 0022 174B     		ldr	r3, .L21+4
 234 0024 1B68     		ldr	r3, [r3]
 235 0026 0022     		movs	r2, #0
 236 0028 9A63     		str	r2, [r3, #56]
  57:Core/Src/AML_MotorControl.c ****     }
  58:Core/Src/AML_MotorControl.c **** }
 237              		.loc 1 58 1 is_stmt 0 view .LVU40
 238 002a 12E0     		b	.L14
 239              	.LVL20:
 240              	.L19:
  42:Core/Src/AML_MotorControl.c ****         HAL_GPIO_WritePin(BIN2_GPIO_Port, BIN2_Pin, !direction);
 241              		.loc 1 42 9 is_stmt 1 view .LVU41
 242 002c 154E     		ldr	r6, .L21+8
 243 002e 134D     		ldr	r5, .L21
 244 0030 3278     		ldrb	r2, [r6]	@ zero_extendqisi2
 245 0032 0821     		movs	r1, #8
 246 0034 2846     		mov	r0, r5
 247              	.LVL21:
  42:Core/Src/AML_MotorControl.c ****         HAL_GPIO_WritePin(BIN2_GPIO_Port, BIN2_Pin, !direction);
 248              		.loc 1 42 9 is_stmt 0 view .LVU42
 249 0036 FFF7FEFF 		bl	HAL_GPIO_WritePin
 250              	.LVL22:
  43:Core/Src/AML_MotorControl.c ****         __HAL_TIM_SET_COMPARE(&htim2, TIM_CHANNEL_2, PWMValue);
 251              		.loc 1 43 9 is_stmt 1 view .LVU43
 252 003a B6F90020 		ldrsh	r2, [r6]
 253 003e B2FA82F2 		clz	r2, r2
 254 0042 5209     		lsrs	r2, r2, #5
 255 0044 0221     		movs	r1, #2
 256 0046 2846     		mov	r0, r5
 257 0048 FFF7FEFF 		bl	HAL_GPIO_WritePin
 258              	.LVL23:
  44:Core/Src/AML_MotorControl.c ****     }
 259              		.loc 1 44 9 view .LVU44
 260 004c 0C4B     		ldr	r3, .L21+4
 261 004e 1B68     		ldr	r3, [r3]
 262 0050 9C63     		str	r4, [r3, #56]
 263              	.L14:
 264              		.loc 1 58 1 is_stmt 0 view .LVU45
 265 0052 70BD     		pop	{r4, r5, r6, pc}
 266              	.LVL24:
 267              	.L20:
  48:Core/Src/AML_MotorControl.c ****         HAL_GPIO_WritePin(BIN2_GPIO_Port, BIN2_Pin, direction);
 268              		.loc 1 48 9 is_stmt 1 view .LVU46
 269 0054 0B4E     		ldr	r6, .L21+8
 270 0056 B6F90020 		ldrsh	r2, [r6]
 271 005a 084D     		ldr	r5, .L21
 272 005c B2FA82F2 		clz	r2, r2
 273 0060 5209     		lsrs	r2, r2, #5
 274 0062 0821     		movs	r1, #8
 275 0064 2846     		mov	r0, r5
 276              	.LVL25:
ARM GAS  C:\Users\anmh1\AppData\Local\Temp\ccJg1Ucb.s 			page 7


  48:Core/Src/AML_MotorControl.c ****         HAL_GPIO_WritePin(BIN2_GPIO_Port, BIN2_Pin, direction);
 277              		.loc 1 48 9 is_stmt 0 view .LVU47
 278 0066 FFF7FEFF 		bl	HAL_GPIO_WritePin
 279              	.LVL26:
  49:Core/Src/AML_MotorControl.c ****         __HAL_TIM_SET_COMPARE(&htim2, TIM_CHANNEL_2, PWMValue);
 280              		.loc 1 49 9 is_stmt 1 view .LVU48
 281 006a 3278     		ldrb	r2, [r6]	@ zero_extendqisi2
 282 006c 0221     		movs	r1, #2
 283 006e 2846     		mov	r0, r5
 284 0070 FFF7FEFF 		bl	HAL_GPIO_WritePin
 285              	.LVL27:
  50:Core/Src/AML_MotorControl.c ****     }
 286              		.loc 1 50 9 view .LVU49
 287 0074 024B     		ldr	r3, .L21+4
 288 0076 1B68     		ldr	r3, [r3]
 289 0078 9C63     		str	r4, [r3, #56]
 290 007a EAE7     		b	.L14
 291              	.L22:
 292              		.align	2
 293              	.L21:
 294 007c 000C0240 		.word	1073875968
 295 0080 00000000 		.word	htim2
 296 0084 00000000 		.word	.LANCHOR0
 297              		.cfi_endproc
 298              	.LFE237:
 300              		.section	.text.AML_MotorControl_SetDirection,"ax",%progbits
 301              		.align	1
 302              		.global	AML_MotorControl_SetDirection
 303              		.syntax unified
 304              		.thumb
 305              		.thumb_func
 306              		.fpu fpv4-sp-d16
 308              	AML_MotorControl_SetDirection:
 309              	.LVL28:
 310              	.LFB238:
  59:Core/Src/AML_MotorControl.c **** 
  60:Core/Src/AML_MotorControl.c **** void AML_MotorControl_SetDirection(short dir)
  61:Core/Src/AML_MotorControl.c **** {
 311              		.loc 1 61 1 view -0
 312              		.cfi_startproc
 313              		@ args = 0, pretend = 0, frame = 0
 314              		@ frame_needed = 0, uses_anonymous_args = 0
 315              		@ link register save eliminated.
  62:Core/Src/AML_MotorControl.c ****     direction = dir;
 316              		.loc 1 62 5 view .LVU51
 317              		.loc 1 62 15 is_stmt 0 view .LVU52
 318 0000 014B     		ldr	r3, .L24
 319 0002 1880     		strh	r0, [r3]	@ movhi
  63:Core/Src/AML_MotorControl.c **** }
 320              		.loc 1 63 1 view .LVU53
 321 0004 7047     		bx	lr
 322              	.L25:
 323 0006 00BF     		.align	2
 324              	.L24:
 325 0008 00000000 		.word	.LANCHOR0
 326              		.cfi_endproc
 327              	.LFE238:
ARM GAS  C:\Users\anmh1\AppData\Local\Temp\ccJg1Ucb.s 			page 8


 329              		.section	.text.AML_MotorControl_ToggleDirection,"ax",%progbits
 330              		.align	1
 331              		.global	AML_MotorControl_ToggleDirection
 332              		.syntax unified
 333              		.thumb
 334              		.thumb_func
 335              		.fpu fpv4-sp-d16
 337              	AML_MotorControl_ToggleDirection:
 338              	.LFB239:
  64:Core/Src/AML_MotorControl.c **** 
  65:Core/Src/AML_MotorControl.c **** void AML_MotorControl_ToggleDirection()
  66:Core/Src/AML_MotorControl.c **** {
 339              		.loc 1 66 1 is_stmt 1 view -0
 340              		.cfi_startproc
 341              		@ args = 0, pretend = 0, frame = 0
 342              		@ frame_needed = 0, uses_anonymous_args = 0
 343              		@ link register save eliminated.
  67:Core/Src/AML_MotorControl.c ****     direction = ~direction;
 344              		.loc 1 67 5 view .LVU55
 345              		.loc 1 67 15 is_stmt 0 view .LVU56
 346 0000 024A     		ldr	r2, .L27
 347 0002 1388     		ldrh	r3, [r2]
 348 0004 DB43     		mvns	r3, r3
 349 0006 1380     		strh	r3, [r2]	@ movhi
  68:Core/Src/AML_MotorControl.c **** }
 350              		.loc 1 68 1 view .LVU57
 351 0008 7047     		bx	lr
 352              	.L28:
 353 000a 00BF     		.align	2
 354              	.L27:
 355 000c 00000000 		.word	.LANCHOR0
 356              		.cfi_endproc
 357              	.LFE239:
 359              		.section	.text.Motor_PWM,"ax",%progbits
 360              		.align	1
 361              		.global	Motor_PWM
 362              		.syntax unified
 363              		.thumb
 364              		.thumb_func
 365              		.fpu fpv4-sp-d16
 367              	Motor_PWM:
 368              	.LVL29:
 369              	.LFB240:
  69:Core/Src/AML_MotorControl.c **** 
  70:Core/Src/AML_MotorControl.c **** void Motor_PWM(uint8_t channel, uint32_t duty)
  71:Core/Src/AML_MotorControl.c **** {
 370              		.loc 1 71 1 is_stmt 1 view -0
 371              		.cfi_startproc
 372              		@ args = 0, pretend = 0, frame = 0
 373              		@ frame_needed = 0, uses_anonymous_args = 0
 374              		.loc 1 71 1 is_stmt 0 view .LVU59
 375 0000 38B5     		push	{r3, r4, r5, lr}
 376              		.cfi_def_cfa_offset 16
 377              		.cfi_offset 3, -16
 378              		.cfi_offset 4, -12
 379              		.cfi_offset 5, -8
 380              		.cfi_offset 14, -4
ARM GAS  C:\Users\anmh1\AppData\Local\Temp\ccJg1Ucb.s 			page 9


 381 0002 0D46     		mov	r5, r1
  72:Core/Src/AML_MotorControl.c ****     uint32_t period = (SystemCoreClock / 5000) - 1;
 382              		.loc 1 72 5 is_stmt 1 view .LVU60
 383              		.loc 1 72 40 is_stmt 0 view .LVU61
 384 0004 204B     		ldr	r3, .L40
 385 0006 1C68     		ldr	r4, [r3]
 386 0008 204B     		ldr	r3, .L40+4
 387 000a A3FB0434 		umull	r3, r4, r3, r4
 388 000e 240B     		lsrs	r4, r4, #12
 389              		.loc 1 72 14 view .LVU62
 390 0010 013C     		subs	r4, r4, #1
 391              	.LVL30:
  73:Core/Src/AML_MotorControl.c ****     htim2.Instance->ARR = period;
 392              		.loc 1 73 5 is_stmt 1 view .LVU63
 393              		.loc 1 73 10 is_stmt 0 view .LVU64
 394 0012 1F4B     		ldr	r3, .L40+8
 395 0014 1B68     		ldr	r3, [r3]
 396              		.loc 1 73 25 view .LVU65
 397 0016 DC62     		str	r4, [r3, #44]
  74:Core/Src/AML_MotorControl.c ****     switch (channel)
 398              		.loc 1 74 5 is_stmt 1 view .LVU66
 399 0018 0128     		cmp	r0, #1
 400 001a 03D0     		beq	.L30
 401 001c 0228     		cmp	r0, #2
 402 001e 15D0     		beq	.L31
 403 0020 40B3     		cbz	r0, .L39
 404              	.LVL31:
 405              	.L29:
  75:Core/Src/AML_MotorControl.c ****     {
  76:Core/Src/AML_MotorControl.c ****     case 1:
  77:Core/Src/AML_MotorControl.c ****         duty == 0 ? HAL_TIM_PWM_Stop(&htim2, TIM_CHANNEL_1) : HAL_TIM_PWM_Start(&htim2, TIM_CHANNEL
  78:Core/Src/AML_MotorControl.c ****         htim2.Instance->CCR1 = (period * duty) / 100;
  79:Core/Src/AML_MotorControl.c ****         break;
  80:Core/Src/AML_MotorControl.c ****     case 2:
  81:Core/Src/AML_MotorControl.c ****         duty == 0 ? HAL_TIM_PWM_Stop(&htim2, TIM_CHANNEL_2) : HAL_TIM_PWM_Start(&htim2, TIM_CHANNEL
  82:Core/Src/AML_MotorControl.c ****         htim2.Instance->CCR2 = (period * duty) / 100;
  83:Core/Src/AML_MotorControl.c ****         break;
  84:Core/Src/AML_MotorControl.c ****     case 0:
  85:Core/Src/AML_MotorControl.c ****         HAL_TIM_PWM_Stop(&htim2, TIM_CHANNEL_ALL);
  86:Core/Src/AML_MotorControl.c ****         HAL_TIM_Base_Stop_IT(&htim2);
  87:Core/Src/AML_MotorControl.c ****         break;
  88:Core/Src/AML_MotorControl.c ****     default:
  89:Core/Src/AML_MotorControl.c ****         break;
  90:Core/Src/AML_MotorControl.c ****     }
  91:Core/Src/AML_MotorControl.c **** }
 406              		.loc 1 91 1 is_stmt 0 view .LVU67
 407 0022 38BD     		pop	{r3, r4, r5, pc}
 408              	.LVL32:
 409              	.L30:
  77:Core/Src/AML_MotorControl.c ****         htim2.Instance->CCR1 = (period * duty) / 100;
 410              		.loc 1 77 9 is_stmt 1 view .LVU68
  77:Core/Src/AML_MotorControl.c ****         htim2.Instance->CCR1 = (period * duty) / 100;
 411              		.loc 1 77 61 is_stmt 0 view .LVU69
 412 0024 69B9     		cbnz	r1, .L34
  77:Core/Src/AML_MotorControl.c ****         htim2.Instance->CCR1 = (period * duty) / 100;
 413              		.loc 1 77 21 discriminator 1 view .LVU70
 414 0026 0021     		movs	r1, #0
ARM GAS  C:\Users\anmh1\AppData\Local\Temp\ccJg1Ucb.s 			page 10


 415              	.LVL33:
  77:Core/Src/AML_MotorControl.c ****         htim2.Instance->CCR1 = (period * duty) / 100;
 416              		.loc 1 77 21 discriminator 1 view .LVU71
 417 0028 1948     		ldr	r0, .L40+8
 418              	.LVL34:
  77:Core/Src/AML_MotorControl.c ****         htim2.Instance->CCR1 = (period * duty) / 100;
 419              		.loc 1 77 21 discriminator 1 view .LVU72
 420 002a FFF7FEFF 		bl	HAL_TIM_PWM_Stop
 421              	.LVL35:
 422              	.L35:
  78:Core/Src/AML_MotorControl.c ****         break;
 423              		.loc 1 78 9 is_stmt 1 view .LVU73
  78:Core/Src/AML_MotorControl.c ****         break;
 424              		.loc 1 78 40 is_stmt 0 view .LVU74
 425 002e 05FB04F4 		mul	r4, r5, r4
 426              	.LVL36:
  78:Core/Src/AML_MotorControl.c ****         break;
 427              		.loc 1 78 14 view .LVU75
 428 0032 174B     		ldr	r3, .L40+8
 429 0034 1B68     		ldr	r3, [r3]
  78:Core/Src/AML_MotorControl.c ****         break;
 430              		.loc 1 78 48 view .LVU76
 431 0036 174A     		ldr	r2, .L40+12
 432 0038 A2FB0424 		umull	r2, r4, r2, r4
 433 003c 6409     		lsrs	r4, r4, #5
  78:Core/Src/AML_MotorControl.c ****         break;
 434              		.loc 1 78 30 view .LVU77
 435 003e 5C63     		str	r4, [r3, #52]
  79:Core/Src/AML_MotorControl.c ****     case 2:
 436              		.loc 1 79 9 is_stmt 1 view .LVU78
 437 0040 EFE7     		b	.L29
 438              	.LVL37:
 439              	.L34:
  77:Core/Src/AML_MotorControl.c ****         htim2.Instance->CCR1 = (period * duty) / 100;
 440              		.loc 1 77 63 is_stmt 0 discriminator 2 view .LVU79
 441 0042 0021     		movs	r1, #0
 442              	.LVL38:
  77:Core/Src/AML_MotorControl.c ****         htim2.Instance->CCR1 = (period * duty) / 100;
 443              		.loc 1 77 63 discriminator 2 view .LVU80
 444 0044 1248     		ldr	r0, .L40+8
 445              	.LVL39:
  77:Core/Src/AML_MotorControl.c ****         htim2.Instance->CCR1 = (period * duty) / 100;
 446              		.loc 1 77 63 discriminator 2 view .LVU81
 447 0046 FFF7FEFF 		bl	HAL_TIM_PWM_Start
 448              	.LVL40:
 449 004a F0E7     		b	.L35
 450              	.LVL41:
 451              	.L31:
  81:Core/Src/AML_MotorControl.c ****         htim2.Instance->CCR2 = (period * duty) / 100;
 452              		.loc 1 81 9 is_stmt 1 view .LVU82
  81:Core/Src/AML_MotorControl.c ****         htim2.Instance->CCR2 = (period * duty) / 100;
 453              		.loc 1 81 61 is_stmt 0 view .LVU83
 454 004c 69B9     		cbnz	r1, .L36
  81:Core/Src/AML_MotorControl.c ****         htim2.Instance->CCR2 = (period * duty) / 100;
 455              		.loc 1 81 21 discriminator 1 view .LVU84
 456 004e 0421     		movs	r1, #4
 457              	.LVL42:
ARM GAS  C:\Users\anmh1\AppData\Local\Temp\ccJg1Ucb.s 			page 11


  81:Core/Src/AML_MotorControl.c ****         htim2.Instance->CCR2 = (period * duty) / 100;
 458              		.loc 1 81 21 discriminator 1 view .LVU85
 459 0050 0F48     		ldr	r0, .L40+8
 460              	.LVL43:
  81:Core/Src/AML_MotorControl.c ****         htim2.Instance->CCR2 = (period * duty) / 100;
 461              		.loc 1 81 21 discriminator 1 view .LVU86
 462 0052 FFF7FEFF 		bl	HAL_TIM_PWM_Stop
 463              	.LVL44:
 464              	.L37:
  82:Core/Src/AML_MotorControl.c ****         break;
 465              		.loc 1 82 9 is_stmt 1 view .LVU87
  82:Core/Src/AML_MotorControl.c ****         break;
 466              		.loc 1 82 40 is_stmt 0 view .LVU88
 467 0056 05FB04F4 		mul	r4, r5, r4
 468              	.LVL45:
  82:Core/Src/AML_MotorControl.c ****         break;
 469              		.loc 1 82 14 view .LVU89
 470 005a 0D4B     		ldr	r3, .L40+8
 471 005c 1B68     		ldr	r3, [r3]
  82:Core/Src/AML_MotorControl.c ****         break;
 472              		.loc 1 82 48 view .LVU90
 473 005e 0D4D     		ldr	r5, .L40+12
 474              	.LVL46:
  82:Core/Src/AML_MotorControl.c ****         break;
 475              		.loc 1 82 48 view .LVU91
 476 0060 A5FB0424 		umull	r2, r4, r5, r4
 477 0064 6409     		lsrs	r4, r4, #5
  82:Core/Src/AML_MotorControl.c ****         break;
 478              		.loc 1 82 30 view .LVU92
 479 0066 9C63     		str	r4, [r3, #56]
  83:Core/Src/AML_MotorControl.c ****     case 0:
 480              		.loc 1 83 9 is_stmt 1 view .LVU93
 481 0068 DBE7     		b	.L29
 482              	.LVL47:
 483              	.L36:
  81:Core/Src/AML_MotorControl.c ****         htim2.Instance->CCR2 = (period * duty) / 100;
 484              		.loc 1 81 63 is_stmt 0 discriminator 2 view .LVU94
 485 006a 0421     		movs	r1, #4
 486              	.LVL48:
  81:Core/Src/AML_MotorControl.c ****         htim2.Instance->CCR2 = (period * duty) / 100;
 487              		.loc 1 81 63 discriminator 2 view .LVU95
 488 006c 0848     		ldr	r0, .L40+8
 489              	.LVL49:
  81:Core/Src/AML_MotorControl.c ****         htim2.Instance->CCR2 = (period * duty) / 100;
 490              		.loc 1 81 63 discriminator 2 view .LVU96
 491 006e FFF7FEFF 		bl	HAL_TIM_PWM_Start
 492              	.LVL50:
 493 0072 F0E7     		b	.L37
 494              	.LVL51:
 495              	.L39:
  85:Core/Src/AML_MotorControl.c ****         HAL_TIM_Base_Stop_IT(&htim2);
 496              		.loc 1 85 9 is_stmt 1 view .LVU97
 497 0074 064C     		ldr	r4, .L40+8
 498              	.LVL52:
  85:Core/Src/AML_MotorControl.c ****         HAL_TIM_Base_Stop_IT(&htim2);
 499              		.loc 1 85 9 is_stmt 0 view .LVU98
 500 0076 3C21     		movs	r1, #60
ARM GAS  C:\Users\anmh1\AppData\Local\Temp\ccJg1Ucb.s 			page 12


 501              	.LVL53:
  85:Core/Src/AML_MotorControl.c ****         HAL_TIM_Base_Stop_IT(&htim2);
 502              		.loc 1 85 9 view .LVU99
 503 0078 2046     		mov	r0, r4
 504              	.LVL54:
  85:Core/Src/AML_MotorControl.c ****         HAL_TIM_Base_Stop_IT(&htim2);
 505              		.loc 1 85 9 view .LVU100
 506 007a FFF7FEFF 		bl	HAL_TIM_PWM_Stop
 507              	.LVL55:
  86:Core/Src/AML_MotorControl.c ****         break;
 508              		.loc 1 86 9 is_stmt 1 view .LVU101
 509 007e 2046     		mov	r0, r4
 510 0080 FFF7FEFF 		bl	HAL_TIM_Base_Stop_IT
 511              	.LVL56:
  87:Core/Src/AML_MotorControl.c ****     default:
 512              		.loc 1 87 9 view .LVU102
 513              		.loc 1 91 1 is_stmt 0 view .LVU103
 514 0084 CDE7     		b	.L29
 515              	.L41:
 516 0086 00BF     		.align	2
 517              	.L40:
 518 0088 00000000 		.word	SystemCoreClock
 519 008c 5917B7D1 		.word	-776530087
 520 0090 00000000 		.word	htim2
 521 0094 1F85EB51 		.word	1374389535
 522              		.cfi_endproc
 523              	.LFE240:
 525              		.global	direction
 526              		.section	.bss.direction,"aw",%nobits
 527              		.align	1
 528              		.set	.LANCHOR0,. + 0
 531              	direction:
 532 0000 0000     		.space	2
 533              		.text
 534              	.Letext0:
 535              		.file 2 "c:\\make\\test\\gcc-arm-none-eabi-9-2019-q4-major-win32\\arm-none-eabi\\include\\machine\
 536              		.file 3 "c:\\make\\test\\gcc-arm-none-eabi-9-2019-q4-major-win32\\arm-none-eabi\\include\\sys\\_st
 537              		.file 4 "Drivers/CMSIS/Include/core_cm4.h"
 538              		.file 5 "Drivers/CMSIS/Device/ST/STM32F4xx/Include/system_stm32f4xx.h"
 539              		.file 6 "Drivers/CMSIS/Device/ST/STM32F4xx/Include/stm32f407xx.h"
 540              		.file 7 "Drivers/STM32F4xx_HAL_Driver/Inc/stm32f4xx_hal_def.h"
 541              		.file 8 "Drivers/STM32F4xx_HAL_Driver/Inc/stm32f4xx_hal_gpio.h"
 542              		.file 9 "Drivers/STM32F4xx_HAL_Driver/Inc/stm32f4xx_hal_dma.h"
 543              		.file 10 "Drivers/STM32F4xx_HAL_Driver/Inc/stm32f4xx_hal_tim.h"
 544              		.file 11 "Drivers/STM32F4xx_HAL_Driver/Inc/stm32f4xx_hal.h"
ARM GAS  C:\Users\anmh1\AppData\Local\Temp\ccJg1Ucb.s 			page 13


DEFINED SYMBOLS
                            *ABS*:00000000 AML_MotorControl.c
C:\Users\anmh1\AppData\Local\Temp\ccJg1Ucb.s:18     .text.AML_MotorControl_Setup:00000000 $t
C:\Users\anmh1\AppData\Local\Temp\ccJg1Ucb.s:26     .text.AML_MotorControl_Setup:00000000 AML_MotorControl_Setup
C:\Users\anmh1\AppData\Local\Temp\ccJg1Ucb.s:63     .text.AML_MotorControl_Setup:00000028 $d
C:\Users\anmh1\AppData\Local\Temp\ccJg1Ucb.s:69     .text.AML_MotorControl_SetLeftSpeed:00000000 $t
C:\Users\anmh1\AppData\Local\Temp\ccJg1Ucb.s:76     .text.AML_MotorControl_SetLeftSpeed:00000000 AML_MotorControl_SetLeftSpeed
C:\Users\anmh1\AppData\Local\Temp\ccJg1Ucb.s:178    .text.AML_MotorControl_SetLeftSpeed:0000007c $d
C:\Users\anmh1\AppData\Local\Temp\ccJg1Ucb.s:185    .text.AML_MotorControl_SetRightSpeed:00000000 $t
C:\Users\anmh1\AppData\Local\Temp\ccJg1Ucb.s:192    .text.AML_MotorControl_SetRightSpeed:00000000 AML_MotorControl_SetRightSpeed
C:\Users\anmh1\AppData\Local\Temp\ccJg1Ucb.s:294    .text.AML_MotorControl_SetRightSpeed:0000007c $d
C:\Users\anmh1\AppData\Local\Temp\ccJg1Ucb.s:301    .text.AML_MotorControl_SetDirection:00000000 $t
C:\Users\anmh1\AppData\Local\Temp\ccJg1Ucb.s:308    .text.AML_MotorControl_SetDirection:00000000 AML_MotorControl_SetDirection
C:\Users\anmh1\AppData\Local\Temp\ccJg1Ucb.s:325    .text.AML_MotorControl_SetDirection:00000008 $d
C:\Users\anmh1\AppData\Local\Temp\ccJg1Ucb.s:330    .text.AML_MotorControl_ToggleDirection:00000000 $t
C:\Users\anmh1\AppData\Local\Temp\ccJg1Ucb.s:337    .text.AML_MotorControl_ToggleDirection:00000000 AML_MotorControl_ToggleDirection
C:\Users\anmh1\AppData\Local\Temp\ccJg1Ucb.s:355    .text.AML_MotorControl_ToggleDirection:0000000c $d
C:\Users\anmh1\AppData\Local\Temp\ccJg1Ucb.s:360    .text.Motor_PWM:00000000 $t
C:\Users\anmh1\AppData\Local\Temp\ccJg1Ucb.s:367    .text.Motor_PWM:00000000 Motor_PWM
C:\Users\anmh1\AppData\Local\Temp\ccJg1Ucb.s:518    .text.Motor_PWM:00000088 $d
C:\Users\anmh1\AppData\Local\Temp\ccJg1Ucb.s:531    .bss.direction:00000000 direction
C:\Users\anmh1\AppData\Local\Temp\ccJg1Ucb.s:527    .bss.direction:00000000 $d

UNDEFINED SYMBOLS
HAL_TIM_Base_Start
HAL_TIM_PWM_Start
HAL_GPIO_WritePin
htim2
HAL_TIM_PWM_Stop
HAL_TIM_Base_Stop_IT
SystemCoreClock
