ARM GAS  C:\Users\anmh1\AppData\Local\Temp\ccWs8dQr.s 			page 1


   1              		.cpu cortex-m4
   2              		.eabi_attribute 27, 1
   3              		.eabi_attribute 28, 1
   4              		.eabi_attribute 20, 1
   5              		.eabi_attribute 21, 1
   6              		.eabi_attribute 23, 3
   7              		.eabi_attribute 24, 1
   8              		.eabi_attribute 25, 1
   9              		.eabi_attribute 26, 1
  10              		.eabi_attribute 30, 1
  11              		.eabi_attribute 34, 1
  12              		.eabi_attribute 18, 4
  13              		.file	"stm32f4xx_hal_msp.c"
  14              		.text
  15              	.Ltext0:
  16              		.cfi_sections	.debug_frame
  17              		.section	.text.HAL_MspInit,"ax",%progbits
  18              		.align	1
  19              		.global	HAL_MspInit
  20              		.arch armv7e-m
  21              		.syntax unified
  22              		.thumb
  23              		.thumb_func
  24              		.fpu fpv4-sp-d16
  26              	HAL_MspInit:
  27              	.LFB130:
  28              		.file 1 "Core/Src/stm32f4xx_hal_msp.c"
   1:Core/Src/stm32f4xx_hal_msp.c **** /* USER CODE BEGIN Header */
   2:Core/Src/stm32f4xx_hal_msp.c **** /**
   3:Core/Src/stm32f4xx_hal_msp.c ****   ******************************************************************************
   4:Core/Src/stm32f4xx_hal_msp.c ****   * @file         stm32f4xx_hal_msp.c
   5:Core/Src/stm32f4xx_hal_msp.c ****   * @brief        This file provides code for the MSP Initialization
   6:Core/Src/stm32f4xx_hal_msp.c ****   *               and de-Initialization codes.
   7:Core/Src/stm32f4xx_hal_msp.c ****   ******************************************************************************
   8:Core/Src/stm32f4xx_hal_msp.c ****   * @attention
   9:Core/Src/stm32f4xx_hal_msp.c ****   *
  10:Core/Src/stm32f4xx_hal_msp.c ****   * Copyright (c) 2023 STMicroelectronics.
  11:Core/Src/stm32f4xx_hal_msp.c ****   * All rights reserved.
  12:Core/Src/stm32f4xx_hal_msp.c ****   *
  13:Core/Src/stm32f4xx_hal_msp.c ****   * This software is licensed under terms that can be found in the LICENSE file
  14:Core/Src/stm32f4xx_hal_msp.c ****   * in the root directory of this software component.
  15:Core/Src/stm32f4xx_hal_msp.c ****   * If no LICENSE file comes with this software, it is provided AS-IS.
  16:Core/Src/stm32f4xx_hal_msp.c ****   *
  17:Core/Src/stm32f4xx_hal_msp.c ****   ******************************************************************************
  18:Core/Src/stm32f4xx_hal_msp.c ****   */
  19:Core/Src/stm32f4xx_hal_msp.c **** /* USER CODE END Header */
  20:Core/Src/stm32f4xx_hal_msp.c **** 
  21:Core/Src/stm32f4xx_hal_msp.c **** /* Includes ------------------------------------------------------------------*/
  22:Core/Src/stm32f4xx_hal_msp.c **** #include "main.h"
  23:Core/Src/stm32f4xx_hal_msp.c **** 
  24:Core/Src/stm32f4xx_hal_msp.c **** /* USER CODE BEGIN Includes */
  25:Core/Src/stm32f4xx_hal_msp.c **** 
  26:Core/Src/stm32f4xx_hal_msp.c **** /* USER CODE END Includes */
  27:Core/Src/stm32f4xx_hal_msp.c **** extern DMA_HandleTypeDef hdma_usart3_rx;
  28:Core/Src/stm32f4xx_hal_msp.c **** 
  29:Core/Src/stm32f4xx_hal_msp.c **** /* Private typedef -----------------------------------------------------------*/
  30:Core/Src/stm32f4xx_hal_msp.c **** /* USER CODE BEGIN TD */
ARM GAS  C:\Users\anmh1\AppData\Local\Temp\ccWs8dQr.s 			page 2


  31:Core/Src/stm32f4xx_hal_msp.c **** 
  32:Core/Src/stm32f4xx_hal_msp.c **** /* USER CODE END TD */
  33:Core/Src/stm32f4xx_hal_msp.c **** 
  34:Core/Src/stm32f4xx_hal_msp.c **** /* Private define ------------------------------------------------------------*/
  35:Core/Src/stm32f4xx_hal_msp.c **** /* USER CODE BEGIN Define */
  36:Core/Src/stm32f4xx_hal_msp.c **** 
  37:Core/Src/stm32f4xx_hal_msp.c **** /* USER CODE END Define */
  38:Core/Src/stm32f4xx_hal_msp.c **** 
  39:Core/Src/stm32f4xx_hal_msp.c **** /* Private macro -------------------------------------------------------------*/
  40:Core/Src/stm32f4xx_hal_msp.c **** /* USER CODE BEGIN Macro */
  41:Core/Src/stm32f4xx_hal_msp.c **** 
  42:Core/Src/stm32f4xx_hal_msp.c **** /* USER CODE END Macro */
  43:Core/Src/stm32f4xx_hal_msp.c **** 
  44:Core/Src/stm32f4xx_hal_msp.c **** /* Private variables ---------------------------------------------------------*/
  45:Core/Src/stm32f4xx_hal_msp.c **** /* USER CODE BEGIN PV */
  46:Core/Src/stm32f4xx_hal_msp.c **** 
  47:Core/Src/stm32f4xx_hal_msp.c **** /* USER CODE END PV */
  48:Core/Src/stm32f4xx_hal_msp.c **** 
  49:Core/Src/stm32f4xx_hal_msp.c **** /* Private function prototypes -----------------------------------------------*/
  50:Core/Src/stm32f4xx_hal_msp.c **** /* USER CODE BEGIN PFP */
  51:Core/Src/stm32f4xx_hal_msp.c **** 
  52:Core/Src/stm32f4xx_hal_msp.c **** /* USER CODE END PFP */
  53:Core/Src/stm32f4xx_hal_msp.c **** 
  54:Core/Src/stm32f4xx_hal_msp.c **** /* External functions --------------------------------------------------------*/
  55:Core/Src/stm32f4xx_hal_msp.c **** /* USER CODE BEGIN ExternalFunctions */
  56:Core/Src/stm32f4xx_hal_msp.c **** 
  57:Core/Src/stm32f4xx_hal_msp.c **** /* USER CODE END ExternalFunctions */
  58:Core/Src/stm32f4xx_hal_msp.c **** 
  59:Core/Src/stm32f4xx_hal_msp.c **** /* USER CODE BEGIN 0 */
  60:Core/Src/stm32f4xx_hal_msp.c **** 
  61:Core/Src/stm32f4xx_hal_msp.c **** /* USER CODE END 0 */
  62:Core/Src/stm32f4xx_hal_msp.c **** 
  63:Core/Src/stm32f4xx_hal_msp.c **** void HAL_TIM_MspPostInit(TIM_HandleTypeDef *htim);
  64:Core/Src/stm32f4xx_hal_msp.c ****                     /**
  65:Core/Src/stm32f4xx_hal_msp.c ****   * Initializes the Global MSP.
  66:Core/Src/stm32f4xx_hal_msp.c ****   */
  67:Core/Src/stm32f4xx_hal_msp.c **** void HAL_MspInit(void)
  68:Core/Src/stm32f4xx_hal_msp.c **** {
  29              		.loc 1 68 1 view -0
  30              		.cfi_startproc
  31              		@ args = 0, pretend = 0, frame = 8
  32              		@ frame_needed = 0, uses_anonymous_args = 0
  33              		@ link register save eliminated.
  34 0000 82B0     		sub	sp, sp, #8
  35              		.cfi_def_cfa_offset 8
  69:Core/Src/stm32f4xx_hal_msp.c ****   /* USER CODE BEGIN MspInit 0 */
  70:Core/Src/stm32f4xx_hal_msp.c **** 
  71:Core/Src/stm32f4xx_hal_msp.c ****   /* USER CODE END MspInit 0 */
  72:Core/Src/stm32f4xx_hal_msp.c **** 
  73:Core/Src/stm32f4xx_hal_msp.c ****   __HAL_RCC_SYSCFG_CLK_ENABLE();
  36              		.loc 1 73 3 view .LVU1
  37              	.LBB2:
  38              		.loc 1 73 3 view .LVU2
  39 0002 0021     		movs	r1, #0
  40 0004 0091     		str	r1, [sp]
  41              		.loc 1 73 3 view .LVU3
  42 0006 0B4B     		ldr	r3, .L3
ARM GAS  C:\Users\anmh1\AppData\Local\Temp\ccWs8dQr.s 			page 3


  43 0008 5A6C     		ldr	r2, [r3, #68]
  44 000a 42F48042 		orr	r2, r2, #16384
  45 000e 5A64     		str	r2, [r3, #68]
  46              		.loc 1 73 3 view .LVU4
  47 0010 5A6C     		ldr	r2, [r3, #68]
  48 0012 02F48042 		and	r2, r2, #16384
  49 0016 0092     		str	r2, [sp]
  50              		.loc 1 73 3 view .LVU5
  51 0018 009A     		ldr	r2, [sp]
  52              	.LBE2:
  53              		.loc 1 73 3 view .LVU6
  74:Core/Src/stm32f4xx_hal_msp.c ****   __HAL_RCC_PWR_CLK_ENABLE();
  54              		.loc 1 74 3 view .LVU7
  55              	.LBB3:
  56              		.loc 1 74 3 view .LVU8
  57 001a 0191     		str	r1, [sp, #4]
  58              		.loc 1 74 3 view .LVU9
  59 001c 1A6C     		ldr	r2, [r3, #64]
  60 001e 42F08052 		orr	r2, r2, #268435456
  61 0022 1A64     		str	r2, [r3, #64]
  62              		.loc 1 74 3 view .LVU10
  63 0024 1B6C     		ldr	r3, [r3, #64]
  64 0026 03F08053 		and	r3, r3, #268435456
  65 002a 0193     		str	r3, [sp, #4]
  66              		.loc 1 74 3 view .LVU11
  67 002c 019B     		ldr	r3, [sp, #4]
  68              	.LBE3:
  69              		.loc 1 74 3 view .LVU12
  75:Core/Src/stm32f4xx_hal_msp.c **** 
  76:Core/Src/stm32f4xx_hal_msp.c ****   /* System interrupt init*/
  77:Core/Src/stm32f4xx_hal_msp.c **** 
  78:Core/Src/stm32f4xx_hal_msp.c ****   /* USER CODE BEGIN MspInit 1 */
  79:Core/Src/stm32f4xx_hal_msp.c **** 
  80:Core/Src/stm32f4xx_hal_msp.c ****   /* USER CODE END MspInit 1 */
  81:Core/Src/stm32f4xx_hal_msp.c **** }
  70              		.loc 1 81 1 is_stmt 0 view .LVU13
  71 002e 02B0     		add	sp, sp, #8
  72              		.cfi_def_cfa_offset 0
  73              		@ sp needed
  74 0030 7047     		bx	lr
  75              	.L4:
  76 0032 00BF     		.align	2
  77              	.L3:
  78 0034 00380240 		.word	1073887232
  79              		.cfi_endproc
  80              	.LFE130:
  82              		.section	.text.HAL_I2C_MspInit,"ax",%progbits
  83              		.align	1
  84              		.global	HAL_I2C_MspInit
  85              		.syntax unified
  86              		.thumb
  87              		.thumb_func
  88              		.fpu fpv4-sp-d16
  90              	HAL_I2C_MspInit:
  91              	.LVL0:
  92              	.LFB131:
  82:Core/Src/stm32f4xx_hal_msp.c **** 
ARM GAS  C:\Users\anmh1\AppData\Local\Temp\ccWs8dQr.s 			page 4


  83:Core/Src/stm32f4xx_hal_msp.c **** /**
  84:Core/Src/stm32f4xx_hal_msp.c **** * @brief I2C MSP Initialization
  85:Core/Src/stm32f4xx_hal_msp.c **** * This function configures the hardware resources used in this example
  86:Core/Src/stm32f4xx_hal_msp.c **** * @param hi2c: I2C handle pointer
  87:Core/Src/stm32f4xx_hal_msp.c **** * @retval None
  88:Core/Src/stm32f4xx_hal_msp.c **** */
  89:Core/Src/stm32f4xx_hal_msp.c **** void HAL_I2C_MspInit(I2C_HandleTypeDef* hi2c)
  90:Core/Src/stm32f4xx_hal_msp.c **** {
  93              		.loc 1 90 1 is_stmt 1 view -0
  94              		.cfi_startproc
  95              		@ args = 0, pretend = 0, frame = 40
  96              		@ frame_needed = 0, uses_anonymous_args = 0
  97              		.loc 1 90 1 is_stmt 0 view .LVU15
  98 0000 2DE9F041 		push	{r4, r5, r6, r7, r8, lr}
  99              		.cfi_def_cfa_offset 24
 100              		.cfi_offset 4, -24
 101              		.cfi_offset 5, -20
 102              		.cfi_offset 6, -16
 103              		.cfi_offset 7, -12
 104              		.cfi_offset 8, -8
 105              		.cfi_offset 14, -4
 106 0004 8AB0     		sub	sp, sp, #40
 107              		.cfi_def_cfa_offset 64
  91:Core/Src/stm32f4xx_hal_msp.c ****   GPIO_InitTypeDef GPIO_InitStruct = {0};
 108              		.loc 1 91 3 is_stmt 1 view .LVU16
 109              		.loc 1 91 20 is_stmt 0 view .LVU17
 110 0006 0023     		movs	r3, #0
 111 0008 0593     		str	r3, [sp, #20]
 112 000a 0693     		str	r3, [sp, #24]
 113 000c 0793     		str	r3, [sp, #28]
 114 000e 0893     		str	r3, [sp, #32]
 115 0010 0993     		str	r3, [sp, #36]
  92:Core/Src/stm32f4xx_hal_msp.c ****   if(hi2c->Instance==I2C1)
 116              		.loc 1 92 3 is_stmt 1 view .LVU18
 117              		.loc 1 92 10 is_stmt 0 view .LVU19
 118 0012 0368     		ldr	r3, [r0]
 119              		.loc 1 92 5 view .LVU20
 120 0014 354A     		ldr	r2, .L11
 121 0016 9342     		cmp	r3, r2
 122 0018 05D0     		beq	.L9
  93:Core/Src/stm32f4xx_hal_msp.c ****   {
  94:Core/Src/stm32f4xx_hal_msp.c ****   /* USER CODE BEGIN I2C1_MspInit 0 */
  95:Core/Src/stm32f4xx_hal_msp.c **** 
  96:Core/Src/stm32f4xx_hal_msp.c ****   /* USER CODE END I2C1_MspInit 0 */
  97:Core/Src/stm32f4xx_hal_msp.c **** 
  98:Core/Src/stm32f4xx_hal_msp.c ****     __HAL_RCC_GPIOB_CLK_ENABLE();
  99:Core/Src/stm32f4xx_hal_msp.c ****     /**I2C1 GPIO Configuration
 100:Core/Src/stm32f4xx_hal_msp.c ****     PB6     ------> I2C1_SCL
 101:Core/Src/stm32f4xx_hal_msp.c ****     PB9     ------> I2C1_SDA
 102:Core/Src/stm32f4xx_hal_msp.c ****     */
 103:Core/Src/stm32f4xx_hal_msp.c ****     GPIO_InitStruct.Pin = GPIO_PIN_6|GPIO_PIN_9;
 104:Core/Src/stm32f4xx_hal_msp.c ****     GPIO_InitStruct.Mode = GPIO_MODE_AF_OD;
 105:Core/Src/stm32f4xx_hal_msp.c ****     GPIO_InitStruct.Pull = GPIO_NOPULL;
 106:Core/Src/stm32f4xx_hal_msp.c ****     GPIO_InitStruct.Speed = GPIO_SPEED_FREQ_VERY_HIGH;
 107:Core/Src/stm32f4xx_hal_msp.c ****     GPIO_InitStruct.Alternate = GPIO_AF4_I2C1;
 108:Core/Src/stm32f4xx_hal_msp.c ****     HAL_GPIO_Init(GPIOB, &GPIO_InitStruct);
 109:Core/Src/stm32f4xx_hal_msp.c **** 
ARM GAS  C:\Users\anmh1\AppData\Local\Temp\ccWs8dQr.s 			page 5


 110:Core/Src/stm32f4xx_hal_msp.c ****     /* Peripheral clock enable */
 111:Core/Src/stm32f4xx_hal_msp.c ****     __HAL_RCC_I2C1_CLK_ENABLE();
 112:Core/Src/stm32f4xx_hal_msp.c ****   /* USER CODE BEGIN I2C1_MspInit 1 */
 113:Core/Src/stm32f4xx_hal_msp.c **** 
 114:Core/Src/stm32f4xx_hal_msp.c ****   /* USER CODE END I2C1_MspInit 1 */
 115:Core/Src/stm32f4xx_hal_msp.c ****   }
 116:Core/Src/stm32f4xx_hal_msp.c ****   else if(hi2c->Instance==I2C3)
 123              		.loc 1 116 8 is_stmt 1 view .LVU21
 124              		.loc 1 116 10 is_stmt 0 view .LVU22
 125 001a 354A     		ldr	r2, .L11+4
 126 001c 9342     		cmp	r3, r2
 127 001e 27D0     		beq	.L10
 128              	.LVL1:
 129              	.L5:
 117:Core/Src/stm32f4xx_hal_msp.c ****   {
 118:Core/Src/stm32f4xx_hal_msp.c ****   /* USER CODE BEGIN I2C3_MspInit 0 */
 119:Core/Src/stm32f4xx_hal_msp.c **** 
 120:Core/Src/stm32f4xx_hal_msp.c ****   /* USER CODE END I2C3_MspInit 0 */
 121:Core/Src/stm32f4xx_hal_msp.c **** 
 122:Core/Src/stm32f4xx_hal_msp.c ****     __HAL_RCC_GPIOC_CLK_ENABLE();
 123:Core/Src/stm32f4xx_hal_msp.c ****     __HAL_RCC_GPIOA_CLK_ENABLE();
 124:Core/Src/stm32f4xx_hal_msp.c ****     /**I2C3 GPIO Configuration
 125:Core/Src/stm32f4xx_hal_msp.c ****     PC9     ------> I2C3_SDA
 126:Core/Src/stm32f4xx_hal_msp.c ****     PA8     ------> I2C3_SCL
 127:Core/Src/stm32f4xx_hal_msp.c ****     */
 128:Core/Src/stm32f4xx_hal_msp.c ****     GPIO_InitStruct.Pin = GPIO_PIN_9;
 129:Core/Src/stm32f4xx_hal_msp.c ****     GPIO_InitStruct.Mode = GPIO_MODE_AF_OD;
 130:Core/Src/stm32f4xx_hal_msp.c ****     GPIO_InitStruct.Pull = GPIO_NOPULL;
 131:Core/Src/stm32f4xx_hal_msp.c ****     GPIO_InitStruct.Speed = GPIO_SPEED_FREQ_VERY_HIGH;
 132:Core/Src/stm32f4xx_hal_msp.c ****     GPIO_InitStruct.Alternate = GPIO_AF4_I2C3;
 133:Core/Src/stm32f4xx_hal_msp.c ****     HAL_GPIO_Init(GPIOC, &GPIO_InitStruct);
 134:Core/Src/stm32f4xx_hal_msp.c **** 
 135:Core/Src/stm32f4xx_hal_msp.c ****     GPIO_InitStruct.Pin = GPIO_PIN_8;
 136:Core/Src/stm32f4xx_hal_msp.c ****     GPIO_InitStruct.Mode = GPIO_MODE_AF_OD;
 137:Core/Src/stm32f4xx_hal_msp.c ****     GPIO_InitStruct.Pull = GPIO_NOPULL;
 138:Core/Src/stm32f4xx_hal_msp.c ****     GPIO_InitStruct.Speed = GPIO_SPEED_FREQ_VERY_HIGH;
 139:Core/Src/stm32f4xx_hal_msp.c ****     GPIO_InitStruct.Alternate = GPIO_AF4_I2C3;
 140:Core/Src/stm32f4xx_hal_msp.c ****     HAL_GPIO_Init(GPIOA, &GPIO_InitStruct);
 141:Core/Src/stm32f4xx_hal_msp.c **** 
 142:Core/Src/stm32f4xx_hal_msp.c ****     /* Peripheral clock enable */
 143:Core/Src/stm32f4xx_hal_msp.c ****     __HAL_RCC_I2C3_CLK_ENABLE();
 144:Core/Src/stm32f4xx_hal_msp.c ****   /* USER CODE BEGIN I2C3_MspInit 1 */
 145:Core/Src/stm32f4xx_hal_msp.c **** 
 146:Core/Src/stm32f4xx_hal_msp.c ****   /* USER CODE END I2C3_MspInit 1 */
 147:Core/Src/stm32f4xx_hal_msp.c ****   }
 148:Core/Src/stm32f4xx_hal_msp.c **** 
 149:Core/Src/stm32f4xx_hal_msp.c **** }
 130              		.loc 1 149 1 view .LVU23
 131 0020 0AB0     		add	sp, sp, #40
 132              		.cfi_remember_state
 133              		.cfi_def_cfa_offset 24
 134              		@ sp needed
 135 0022 BDE8F081 		pop	{r4, r5, r6, r7, r8, pc}
 136              	.LVL2:
 137              	.L9:
 138              		.cfi_restore_state
  98:Core/Src/stm32f4xx_hal_msp.c ****     /**I2C1 GPIO Configuration
ARM GAS  C:\Users\anmh1\AppData\Local\Temp\ccWs8dQr.s 			page 6


 139              		.loc 1 98 5 is_stmt 1 view .LVU24
 140              	.LBB4:
  98:Core/Src/stm32f4xx_hal_msp.c ****     /**I2C1 GPIO Configuration
 141              		.loc 1 98 5 view .LVU25
 142 0026 0025     		movs	r5, #0
 143 0028 0095     		str	r5, [sp]
  98:Core/Src/stm32f4xx_hal_msp.c ****     /**I2C1 GPIO Configuration
 144              		.loc 1 98 5 view .LVU26
 145 002a 324C     		ldr	r4, .L11+8
 146 002c 236B     		ldr	r3, [r4, #48]
 147 002e 43F00203 		orr	r3, r3, #2
 148 0032 2363     		str	r3, [r4, #48]
  98:Core/Src/stm32f4xx_hal_msp.c ****     /**I2C1 GPIO Configuration
 149              		.loc 1 98 5 view .LVU27
 150 0034 236B     		ldr	r3, [r4, #48]
 151 0036 03F00203 		and	r3, r3, #2
 152 003a 0093     		str	r3, [sp]
  98:Core/Src/stm32f4xx_hal_msp.c ****     /**I2C1 GPIO Configuration
 153              		.loc 1 98 5 view .LVU28
 154 003c 009B     		ldr	r3, [sp]
 155              	.LBE4:
  98:Core/Src/stm32f4xx_hal_msp.c ****     /**I2C1 GPIO Configuration
 156              		.loc 1 98 5 view .LVU29
 103:Core/Src/stm32f4xx_hal_msp.c ****     GPIO_InitStruct.Mode = GPIO_MODE_AF_OD;
 157              		.loc 1 103 5 view .LVU30
 103:Core/Src/stm32f4xx_hal_msp.c ****     GPIO_InitStruct.Mode = GPIO_MODE_AF_OD;
 158              		.loc 1 103 25 is_stmt 0 view .LVU31
 159 003e 4FF41073 		mov	r3, #576
 160 0042 0593     		str	r3, [sp, #20]
 104:Core/Src/stm32f4xx_hal_msp.c ****     GPIO_InitStruct.Pull = GPIO_NOPULL;
 161              		.loc 1 104 5 is_stmt 1 view .LVU32
 104:Core/Src/stm32f4xx_hal_msp.c ****     GPIO_InitStruct.Pull = GPIO_NOPULL;
 162              		.loc 1 104 26 is_stmt 0 view .LVU33
 163 0044 1223     		movs	r3, #18
 164 0046 0693     		str	r3, [sp, #24]
 105:Core/Src/stm32f4xx_hal_msp.c ****     GPIO_InitStruct.Speed = GPIO_SPEED_FREQ_VERY_HIGH;
 165              		.loc 1 105 5 is_stmt 1 view .LVU34
 105:Core/Src/stm32f4xx_hal_msp.c ****     GPIO_InitStruct.Speed = GPIO_SPEED_FREQ_VERY_HIGH;
 166              		.loc 1 105 26 is_stmt 0 view .LVU35
 167 0048 0795     		str	r5, [sp, #28]
 106:Core/Src/stm32f4xx_hal_msp.c ****     GPIO_InitStruct.Alternate = GPIO_AF4_I2C1;
 168              		.loc 1 106 5 is_stmt 1 view .LVU36
 106:Core/Src/stm32f4xx_hal_msp.c ****     GPIO_InitStruct.Alternate = GPIO_AF4_I2C1;
 169              		.loc 1 106 27 is_stmt 0 view .LVU37
 170 004a 0323     		movs	r3, #3
 171 004c 0893     		str	r3, [sp, #32]
 107:Core/Src/stm32f4xx_hal_msp.c ****     HAL_GPIO_Init(GPIOB, &GPIO_InitStruct);
 172              		.loc 1 107 5 is_stmt 1 view .LVU38
 107:Core/Src/stm32f4xx_hal_msp.c ****     HAL_GPIO_Init(GPIOB, &GPIO_InitStruct);
 173              		.loc 1 107 31 is_stmt 0 view .LVU39
 174 004e 0423     		movs	r3, #4
 175 0050 0993     		str	r3, [sp, #36]
 108:Core/Src/stm32f4xx_hal_msp.c **** 
 176              		.loc 1 108 5 is_stmt 1 view .LVU40
 177 0052 05A9     		add	r1, sp, #20
 178 0054 2848     		ldr	r0, .L11+12
 179              	.LVL3:
ARM GAS  C:\Users\anmh1\AppData\Local\Temp\ccWs8dQr.s 			page 7


 108:Core/Src/stm32f4xx_hal_msp.c **** 
 180              		.loc 1 108 5 is_stmt 0 view .LVU41
 181 0056 FFF7FEFF 		bl	HAL_GPIO_Init
 182              	.LVL4:
 111:Core/Src/stm32f4xx_hal_msp.c ****   /* USER CODE BEGIN I2C1_MspInit 1 */
 183              		.loc 1 111 5 is_stmt 1 view .LVU42
 184              	.LBB5:
 111:Core/Src/stm32f4xx_hal_msp.c ****   /* USER CODE BEGIN I2C1_MspInit 1 */
 185              		.loc 1 111 5 view .LVU43
 186 005a 0195     		str	r5, [sp, #4]
 111:Core/Src/stm32f4xx_hal_msp.c ****   /* USER CODE BEGIN I2C1_MspInit 1 */
 187              		.loc 1 111 5 view .LVU44
 188 005c 236C     		ldr	r3, [r4, #64]
 189 005e 43F40013 		orr	r3, r3, #2097152
 190 0062 2364     		str	r3, [r4, #64]
 111:Core/Src/stm32f4xx_hal_msp.c ****   /* USER CODE BEGIN I2C1_MspInit 1 */
 191              		.loc 1 111 5 view .LVU45
 192 0064 236C     		ldr	r3, [r4, #64]
 193 0066 03F40013 		and	r3, r3, #2097152
 194 006a 0193     		str	r3, [sp, #4]
 111:Core/Src/stm32f4xx_hal_msp.c ****   /* USER CODE BEGIN I2C1_MspInit 1 */
 195              		.loc 1 111 5 view .LVU46
 196 006c 019B     		ldr	r3, [sp, #4]
 197              	.LBE5:
 111:Core/Src/stm32f4xx_hal_msp.c ****   /* USER CODE BEGIN I2C1_MspInit 1 */
 198              		.loc 1 111 5 view .LVU47
 199 006e D7E7     		b	.L5
 200              	.LVL5:
 201              	.L10:
 122:Core/Src/stm32f4xx_hal_msp.c ****     __HAL_RCC_GPIOA_CLK_ENABLE();
 202              		.loc 1 122 5 view .LVU48
 203              	.LBB6:
 122:Core/Src/stm32f4xx_hal_msp.c ****     __HAL_RCC_GPIOA_CLK_ENABLE();
 204              		.loc 1 122 5 view .LVU49
 205 0070 0025     		movs	r5, #0
 206 0072 0295     		str	r5, [sp, #8]
 122:Core/Src/stm32f4xx_hal_msp.c ****     __HAL_RCC_GPIOA_CLK_ENABLE();
 207              		.loc 1 122 5 view .LVU50
 208 0074 1F4C     		ldr	r4, .L11+8
 209 0076 236B     		ldr	r3, [r4, #48]
 210 0078 43F00403 		orr	r3, r3, #4
 211 007c 2363     		str	r3, [r4, #48]
 122:Core/Src/stm32f4xx_hal_msp.c ****     __HAL_RCC_GPIOA_CLK_ENABLE();
 212              		.loc 1 122 5 view .LVU51
 213 007e 236B     		ldr	r3, [r4, #48]
 214 0080 03F00403 		and	r3, r3, #4
 215 0084 0293     		str	r3, [sp, #8]
 122:Core/Src/stm32f4xx_hal_msp.c ****     __HAL_RCC_GPIOA_CLK_ENABLE();
 216              		.loc 1 122 5 view .LVU52
 217 0086 029B     		ldr	r3, [sp, #8]
 218              	.LBE6:
 122:Core/Src/stm32f4xx_hal_msp.c ****     __HAL_RCC_GPIOA_CLK_ENABLE();
 219              		.loc 1 122 5 view .LVU53
 123:Core/Src/stm32f4xx_hal_msp.c ****     /**I2C3 GPIO Configuration
 220              		.loc 1 123 5 view .LVU54
 221              	.LBB7:
 123:Core/Src/stm32f4xx_hal_msp.c ****     /**I2C3 GPIO Configuration
ARM GAS  C:\Users\anmh1\AppData\Local\Temp\ccWs8dQr.s 			page 8


 222              		.loc 1 123 5 view .LVU55
 223 0088 0395     		str	r5, [sp, #12]
 123:Core/Src/stm32f4xx_hal_msp.c ****     /**I2C3 GPIO Configuration
 224              		.loc 1 123 5 view .LVU56
 225 008a 236B     		ldr	r3, [r4, #48]
 226 008c 43F00103 		orr	r3, r3, #1
 227 0090 2363     		str	r3, [r4, #48]
 123:Core/Src/stm32f4xx_hal_msp.c ****     /**I2C3 GPIO Configuration
 228              		.loc 1 123 5 view .LVU57
 229 0092 236B     		ldr	r3, [r4, #48]
 230 0094 03F00103 		and	r3, r3, #1
 231 0098 0393     		str	r3, [sp, #12]
 123:Core/Src/stm32f4xx_hal_msp.c ****     /**I2C3 GPIO Configuration
 232              		.loc 1 123 5 view .LVU58
 233 009a 039B     		ldr	r3, [sp, #12]
 234              	.LBE7:
 123:Core/Src/stm32f4xx_hal_msp.c ****     /**I2C3 GPIO Configuration
 235              		.loc 1 123 5 view .LVU59
 128:Core/Src/stm32f4xx_hal_msp.c ****     GPIO_InitStruct.Mode = GPIO_MODE_AF_OD;
 236              		.loc 1 128 5 view .LVU60
 128:Core/Src/stm32f4xx_hal_msp.c ****     GPIO_InitStruct.Mode = GPIO_MODE_AF_OD;
 237              		.loc 1 128 25 is_stmt 0 view .LVU61
 238 009c 4FF40073 		mov	r3, #512
 239 00a0 0593     		str	r3, [sp, #20]
 129:Core/Src/stm32f4xx_hal_msp.c ****     GPIO_InitStruct.Pull = GPIO_NOPULL;
 240              		.loc 1 129 5 is_stmt 1 view .LVU62
 129:Core/Src/stm32f4xx_hal_msp.c ****     GPIO_InitStruct.Pull = GPIO_NOPULL;
 241              		.loc 1 129 26 is_stmt 0 view .LVU63
 242 00a2 4FF01208 		mov	r8, #18
 243 00a6 CDF81880 		str	r8, [sp, #24]
 130:Core/Src/stm32f4xx_hal_msp.c ****     GPIO_InitStruct.Speed = GPIO_SPEED_FREQ_VERY_HIGH;
 244              		.loc 1 130 5 is_stmt 1 view .LVU64
 130:Core/Src/stm32f4xx_hal_msp.c ****     GPIO_InitStruct.Speed = GPIO_SPEED_FREQ_VERY_HIGH;
 245              		.loc 1 130 26 is_stmt 0 view .LVU65
 246 00aa 0795     		str	r5, [sp, #28]
 131:Core/Src/stm32f4xx_hal_msp.c ****     GPIO_InitStruct.Alternate = GPIO_AF4_I2C3;
 247              		.loc 1 131 5 is_stmt 1 view .LVU66
 131:Core/Src/stm32f4xx_hal_msp.c ****     GPIO_InitStruct.Alternate = GPIO_AF4_I2C3;
 248              		.loc 1 131 27 is_stmt 0 view .LVU67
 249 00ac 0327     		movs	r7, #3
 250 00ae 0897     		str	r7, [sp, #32]
 132:Core/Src/stm32f4xx_hal_msp.c ****     HAL_GPIO_Init(GPIOC, &GPIO_InitStruct);
 251              		.loc 1 132 5 is_stmt 1 view .LVU68
 132:Core/Src/stm32f4xx_hal_msp.c ****     HAL_GPIO_Init(GPIOC, &GPIO_InitStruct);
 252              		.loc 1 132 31 is_stmt 0 view .LVU69
 253 00b0 0426     		movs	r6, #4
 254 00b2 0996     		str	r6, [sp, #36]
 133:Core/Src/stm32f4xx_hal_msp.c **** 
 255              		.loc 1 133 5 is_stmt 1 view .LVU70
 256 00b4 05A9     		add	r1, sp, #20
 257 00b6 1148     		ldr	r0, .L11+16
 258              	.LVL6:
 133:Core/Src/stm32f4xx_hal_msp.c **** 
 259              		.loc 1 133 5 is_stmt 0 view .LVU71
 260 00b8 FFF7FEFF 		bl	HAL_GPIO_Init
 261              	.LVL7:
 135:Core/Src/stm32f4xx_hal_msp.c ****     GPIO_InitStruct.Mode = GPIO_MODE_AF_OD;
ARM GAS  C:\Users\anmh1\AppData\Local\Temp\ccWs8dQr.s 			page 9


 262              		.loc 1 135 5 is_stmt 1 view .LVU72
 135:Core/Src/stm32f4xx_hal_msp.c ****     GPIO_InitStruct.Mode = GPIO_MODE_AF_OD;
 263              		.loc 1 135 25 is_stmt 0 view .LVU73
 264 00bc 4FF48073 		mov	r3, #256
 265 00c0 0593     		str	r3, [sp, #20]
 136:Core/Src/stm32f4xx_hal_msp.c ****     GPIO_InitStruct.Pull = GPIO_NOPULL;
 266              		.loc 1 136 5 is_stmt 1 view .LVU74
 136:Core/Src/stm32f4xx_hal_msp.c ****     GPIO_InitStruct.Pull = GPIO_NOPULL;
 267              		.loc 1 136 26 is_stmt 0 view .LVU75
 268 00c2 CDF81880 		str	r8, [sp, #24]
 137:Core/Src/stm32f4xx_hal_msp.c ****     GPIO_InitStruct.Speed = GPIO_SPEED_FREQ_VERY_HIGH;
 269              		.loc 1 137 5 is_stmt 1 view .LVU76
 137:Core/Src/stm32f4xx_hal_msp.c ****     GPIO_InitStruct.Speed = GPIO_SPEED_FREQ_VERY_HIGH;
 270              		.loc 1 137 26 is_stmt 0 view .LVU77
 271 00c6 0795     		str	r5, [sp, #28]
 138:Core/Src/stm32f4xx_hal_msp.c ****     GPIO_InitStruct.Alternate = GPIO_AF4_I2C3;
 272              		.loc 1 138 5 is_stmt 1 view .LVU78
 138:Core/Src/stm32f4xx_hal_msp.c ****     GPIO_InitStruct.Alternate = GPIO_AF4_I2C3;
 273              		.loc 1 138 27 is_stmt 0 view .LVU79
 274 00c8 0897     		str	r7, [sp, #32]
 139:Core/Src/stm32f4xx_hal_msp.c ****     HAL_GPIO_Init(GPIOA, &GPIO_InitStruct);
 275              		.loc 1 139 5 is_stmt 1 view .LVU80
 139:Core/Src/stm32f4xx_hal_msp.c ****     HAL_GPIO_Init(GPIOA, &GPIO_InitStruct);
 276              		.loc 1 139 31 is_stmt 0 view .LVU81
 277 00ca 0996     		str	r6, [sp, #36]
 140:Core/Src/stm32f4xx_hal_msp.c **** 
 278              		.loc 1 140 5 is_stmt 1 view .LVU82
 279 00cc 05A9     		add	r1, sp, #20
 280 00ce 0C48     		ldr	r0, .L11+20
 281 00d0 FFF7FEFF 		bl	HAL_GPIO_Init
 282              	.LVL8:
 143:Core/Src/stm32f4xx_hal_msp.c ****   /* USER CODE BEGIN I2C3_MspInit 1 */
 283              		.loc 1 143 5 view .LVU83
 284              	.LBB8:
 143:Core/Src/stm32f4xx_hal_msp.c ****   /* USER CODE BEGIN I2C3_MspInit 1 */
 285              		.loc 1 143 5 view .LVU84
 286 00d4 0495     		str	r5, [sp, #16]
 143:Core/Src/stm32f4xx_hal_msp.c ****   /* USER CODE BEGIN I2C3_MspInit 1 */
 287              		.loc 1 143 5 view .LVU85
 288 00d6 236C     		ldr	r3, [r4, #64]
 289 00d8 43F40003 		orr	r3, r3, #8388608
 290 00dc 2364     		str	r3, [r4, #64]
 143:Core/Src/stm32f4xx_hal_msp.c ****   /* USER CODE BEGIN I2C3_MspInit 1 */
 291              		.loc 1 143 5 view .LVU86
 292 00de 236C     		ldr	r3, [r4, #64]
 293 00e0 03F40003 		and	r3, r3, #8388608
 294 00e4 0493     		str	r3, [sp, #16]
 143:Core/Src/stm32f4xx_hal_msp.c ****   /* USER CODE BEGIN I2C3_MspInit 1 */
 295              		.loc 1 143 5 view .LVU87
 296 00e6 049B     		ldr	r3, [sp, #16]
 297              	.LBE8:
 143:Core/Src/stm32f4xx_hal_msp.c ****   /* USER CODE BEGIN I2C3_MspInit 1 */
 298              		.loc 1 143 5 view .LVU88
 299              		.loc 1 149 1 is_stmt 0 view .LVU89
 300 00e8 9AE7     		b	.L5
 301              	.L12:
 302 00ea 00BF     		.align	2
ARM GAS  C:\Users\anmh1\AppData\Local\Temp\ccWs8dQr.s 			page 10


 303              	.L11:
 304 00ec 00540040 		.word	1073763328
 305 00f0 005C0040 		.word	1073765376
 306 00f4 00380240 		.word	1073887232
 307 00f8 00040240 		.word	1073873920
 308 00fc 00080240 		.word	1073874944
 309 0100 00000240 		.word	1073872896
 310              		.cfi_endproc
 311              	.LFE131:
 313              		.section	.text.HAL_I2C_MspDeInit,"ax",%progbits
 314              		.align	1
 315              		.global	HAL_I2C_MspDeInit
 316              		.syntax unified
 317              		.thumb
 318              		.thumb_func
 319              		.fpu fpv4-sp-d16
 321              	HAL_I2C_MspDeInit:
 322              	.LVL9:
 323              	.LFB132:
 150:Core/Src/stm32f4xx_hal_msp.c **** 
 151:Core/Src/stm32f4xx_hal_msp.c **** /**
 152:Core/Src/stm32f4xx_hal_msp.c **** * @brief I2C MSP De-Initialization
 153:Core/Src/stm32f4xx_hal_msp.c **** * This function freeze the hardware resources used in this example
 154:Core/Src/stm32f4xx_hal_msp.c **** * @param hi2c: I2C handle pointer
 155:Core/Src/stm32f4xx_hal_msp.c **** * @retval None
 156:Core/Src/stm32f4xx_hal_msp.c **** */
 157:Core/Src/stm32f4xx_hal_msp.c **** void HAL_I2C_MspDeInit(I2C_HandleTypeDef* hi2c)
 158:Core/Src/stm32f4xx_hal_msp.c **** {
 324              		.loc 1 158 1 is_stmt 1 view -0
 325              		.cfi_startproc
 326              		@ args = 0, pretend = 0, frame = 0
 327              		@ frame_needed = 0, uses_anonymous_args = 0
 328              		.loc 1 158 1 is_stmt 0 view .LVU91
 329 0000 10B5     		push	{r4, lr}
 330              		.cfi_def_cfa_offset 8
 331              		.cfi_offset 4, -8
 332              		.cfi_offset 14, -4
 159:Core/Src/stm32f4xx_hal_msp.c ****   if(hi2c->Instance==I2C1)
 333              		.loc 1 159 3 is_stmt 1 view .LVU92
 334              		.loc 1 159 10 is_stmt 0 view .LVU93
 335 0002 0368     		ldr	r3, [r0]
 336              		.loc 1 159 5 view .LVU94
 337 0004 144A     		ldr	r2, .L19
 338 0006 9342     		cmp	r3, r2
 339 0008 03D0     		beq	.L17
 160:Core/Src/stm32f4xx_hal_msp.c ****   {
 161:Core/Src/stm32f4xx_hal_msp.c ****   /* USER CODE BEGIN I2C1_MspDeInit 0 */
 162:Core/Src/stm32f4xx_hal_msp.c **** 
 163:Core/Src/stm32f4xx_hal_msp.c ****   /* USER CODE END I2C1_MspDeInit 0 */
 164:Core/Src/stm32f4xx_hal_msp.c ****     /* Peripheral clock disable */
 165:Core/Src/stm32f4xx_hal_msp.c ****     __HAL_RCC_I2C1_CLK_DISABLE();
 166:Core/Src/stm32f4xx_hal_msp.c **** 
 167:Core/Src/stm32f4xx_hal_msp.c ****     /**I2C1 GPIO Configuration
 168:Core/Src/stm32f4xx_hal_msp.c ****     PB6     ------> I2C1_SCL
 169:Core/Src/stm32f4xx_hal_msp.c ****     PB9     ------> I2C1_SDA
 170:Core/Src/stm32f4xx_hal_msp.c ****     */
 171:Core/Src/stm32f4xx_hal_msp.c ****     HAL_GPIO_DeInit(GPIOB, GPIO_PIN_6);
ARM GAS  C:\Users\anmh1\AppData\Local\Temp\ccWs8dQr.s 			page 11


 172:Core/Src/stm32f4xx_hal_msp.c **** 
 173:Core/Src/stm32f4xx_hal_msp.c ****     HAL_GPIO_DeInit(GPIOB, GPIO_PIN_9);
 174:Core/Src/stm32f4xx_hal_msp.c **** 
 175:Core/Src/stm32f4xx_hal_msp.c ****   /* USER CODE BEGIN I2C1_MspDeInit 1 */
 176:Core/Src/stm32f4xx_hal_msp.c **** 
 177:Core/Src/stm32f4xx_hal_msp.c ****   /* USER CODE END I2C1_MspDeInit 1 */
 178:Core/Src/stm32f4xx_hal_msp.c ****   }
 179:Core/Src/stm32f4xx_hal_msp.c ****   else if(hi2c->Instance==I2C3)
 340              		.loc 1 179 8 is_stmt 1 view .LVU95
 341              		.loc 1 179 10 is_stmt 0 view .LVU96
 342 000a 144A     		ldr	r2, .L19+4
 343 000c 9342     		cmp	r3, r2
 344 000e 11D0     		beq	.L18
 345              	.LVL10:
 346              	.L13:
 180:Core/Src/stm32f4xx_hal_msp.c ****   {
 181:Core/Src/stm32f4xx_hal_msp.c ****   /* USER CODE BEGIN I2C3_MspDeInit 0 */
 182:Core/Src/stm32f4xx_hal_msp.c **** 
 183:Core/Src/stm32f4xx_hal_msp.c ****   /* USER CODE END I2C3_MspDeInit 0 */
 184:Core/Src/stm32f4xx_hal_msp.c ****     /* Peripheral clock disable */
 185:Core/Src/stm32f4xx_hal_msp.c ****     __HAL_RCC_I2C3_CLK_DISABLE();
 186:Core/Src/stm32f4xx_hal_msp.c **** 
 187:Core/Src/stm32f4xx_hal_msp.c ****     /**I2C3 GPIO Configuration
 188:Core/Src/stm32f4xx_hal_msp.c ****     PC9     ------> I2C3_SDA
 189:Core/Src/stm32f4xx_hal_msp.c ****     PA8     ------> I2C3_SCL
 190:Core/Src/stm32f4xx_hal_msp.c ****     */
 191:Core/Src/stm32f4xx_hal_msp.c ****     HAL_GPIO_DeInit(GPIOC, GPIO_PIN_9);
 192:Core/Src/stm32f4xx_hal_msp.c **** 
 193:Core/Src/stm32f4xx_hal_msp.c ****     HAL_GPIO_DeInit(GPIOA, GPIO_PIN_8);
 194:Core/Src/stm32f4xx_hal_msp.c **** 
 195:Core/Src/stm32f4xx_hal_msp.c ****   /* USER CODE BEGIN I2C3_MspDeInit 1 */
 196:Core/Src/stm32f4xx_hal_msp.c **** 
 197:Core/Src/stm32f4xx_hal_msp.c ****   /* USER CODE END I2C3_MspDeInit 1 */
 198:Core/Src/stm32f4xx_hal_msp.c ****   }
 199:Core/Src/stm32f4xx_hal_msp.c **** 
 200:Core/Src/stm32f4xx_hal_msp.c **** }
 347              		.loc 1 200 1 view .LVU97
 348 0010 10BD     		pop	{r4, pc}
 349              	.LVL11:
 350              	.L17:
 165:Core/Src/stm32f4xx_hal_msp.c **** 
 351              		.loc 1 165 5 is_stmt 1 view .LVU98
 352 0012 02F5F232 		add	r2, r2, #123904
 353 0016 136C     		ldr	r3, [r2, #64]
 354 0018 23F40013 		bic	r3, r3, #2097152
 355 001c 1364     		str	r3, [r2, #64]
 171:Core/Src/stm32f4xx_hal_msp.c **** 
 356              		.loc 1 171 5 view .LVU99
 357 001e 104C     		ldr	r4, .L19+8
 358 0020 4021     		movs	r1, #64
 359 0022 2046     		mov	r0, r4
 360              	.LVL12:
 171:Core/Src/stm32f4xx_hal_msp.c **** 
 361              		.loc 1 171 5 is_stmt 0 view .LVU100
 362 0024 FFF7FEFF 		bl	HAL_GPIO_DeInit
 363              	.LVL13:
 173:Core/Src/stm32f4xx_hal_msp.c **** 
ARM GAS  C:\Users\anmh1\AppData\Local\Temp\ccWs8dQr.s 			page 12


 364              		.loc 1 173 5 is_stmt 1 view .LVU101
 365 0028 4FF40071 		mov	r1, #512
 366 002c 2046     		mov	r0, r4
 367 002e FFF7FEFF 		bl	HAL_GPIO_DeInit
 368              	.LVL14:
 369 0032 EDE7     		b	.L13
 370              	.LVL15:
 371              	.L18:
 185:Core/Src/stm32f4xx_hal_msp.c **** 
 372              		.loc 1 185 5 view .LVU102
 373 0034 02F5EE32 		add	r2, r2, #121856
 374 0038 136C     		ldr	r3, [r2, #64]
 375 003a 23F40003 		bic	r3, r3, #8388608
 376 003e 1364     		str	r3, [r2, #64]
 191:Core/Src/stm32f4xx_hal_msp.c **** 
 377              		.loc 1 191 5 view .LVU103
 378 0040 4FF40071 		mov	r1, #512
 379 0044 0748     		ldr	r0, .L19+12
 380              	.LVL16:
 191:Core/Src/stm32f4xx_hal_msp.c **** 
 381              		.loc 1 191 5 is_stmt 0 view .LVU104
 382 0046 FFF7FEFF 		bl	HAL_GPIO_DeInit
 383              	.LVL17:
 193:Core/Src/stm32f4xx_hal_msp.c **** 
 384              		.loc 1 193 5 is_stmt 1 view .LVU105
 385 004a 4FF48071 		mov	r1, #256
 386 004e 0648     		ldr	r0, .L19+16
 387 0050 FFF7FEFF 		bl	HAL_GPIO_DeInit
 388              	.LVL18:
 389              		.loc 1 200 1 is_stmt 0 view .LVU106
 390 0054 DCE7     		b	.L13
 391              	.L20:
 392 0056 00BF     		.align	2
 393              	.L19:
 394 0058 00540040 		.word	1073763328
 395 005c 005C0040 		.word	1073765376
 396 0060 00040240 		.word	1073873920
 397 0064 00080240 		.word	1073874944
 398 0068 00000240 		.word	1073872896
 399              		.cfi_endproc
 400              	.LFE132:
 402              		.section	.text.HAL_TIM_Encoder_MspInit,"ax",%progbits
 403              		.align	1
 404              		.global	HAL_TIM_Encoder_MspInit
 405              		.syntax unified
 406              		.thumb
 407              		.thumb_func
 408              		.fpu fpv4-sp-d16
 410              	HAL_TIM_Encoder_MspInit:
 411              	.LVL19:
 412              	.LFB133:
 201:Core/Src/stm32f4xx_hal_msp.c **** 
 202:Core/Src/stm32f4xx_hal_msp.c **** /**
 203:Core/Src/stm32f4xx_hal_msp.c **** * @brief TIM_Encoder MSP Initialization
 204:Core/Src/stm32f4xx_hal_msp.c **** * This function configures the hardware resources used in this example
 205:Core/Src/stm32f4xx_hal_msp.c **** * @param htim_encoder: TIM_Encoder handle pointer
 206:Core/Src/stm32f4xx_hal_msp.c **** * @retval None
ARM GAS  C:\Users\anmh1\AppData\Local\Temp\ccWs8dQr.s 			page 13


 207:Core/Src/stm32f4xx_hal_msp.c **** */
 208:Core/Src/stm32f4xx_hal_msp.c **** void HAL_TIM_Encoder_MspInit(TIM_HandleTypeDef* htim_encoder)
 209:Core/Src/stm32f4xx_hal_msp.c **** {
 413              		.loc 1 209 1 is_stmt 1 view -0
 414              		.cfi_startproc
 415              		@ args = 0, pretend = 0, frame = 40
 416              		@ frame_needed = 0, uses_anonymous_args = 0
 417              		.loc 1 209 1 is_stmt 0 view .LVU108
 418 0000 30B5     		push	{r4, r5, lr}
 419              		.cfi_def_cfa_offset 12
 420              		.cfi_offset 4, -12
 421              		.cfi_offset 5, -8
 422              		.cfi_offset 14, -4
 423 0002 8BB0     		sub	sp, sp, #44
 424              		.cfi_def_cfa_offset 56
 210:Core/Src/stm32f4xx_hal_msp.c ****   GPIO_InitTypeDef GPIO_InitStruct = {0};
 425              		.loc 1 210 3 is_stmt 1 view .LVU109
 426              		.loc 1 210 20 is_stmt 0 view .LVU110
 427 0004 0023     		movs	r3, #0
 428 0006 0593     		str	r3, [sp, #20]
 429 0008 0693     		str	r3, [sp, #24]
 430 000a 0793     		str	r3, [sp, #28]
 431 000c 0893     		str	r3, [sp, #32]
 432 000e 0993     		str	r3, [sp, #36]
 211:Core/Src/stm32f4xx_hal_msp.c ****   if(htim_encoder->Instance==TIM1)
 433              		.loc 1 211 3 is_stmt 1 view .LVU111
 434              		.loc 1 211 18 is_stmt 0 view .LVU112
 435 0010 0368     		ldr	r3, [r0]
 436              		.loc 1 211 5 view .LVU113
 437 0012 314A     		ldr	r2, .L27
 438 0014 9342     		cmp	r3, r2
 439 0016 04D0     		beq	.L25
 212:Core/Src/stm32f4xx_hal_msp.c ****   {
 213:Core/Src/stm32f4xx_hal_msp.c ****   /* USER CODE BEGIN TIM1_MspInit 0 */
 214:Core/Src/stm32f4xx_hal_msp.c **** 
 215:Core/Src/stm32f4xx_hal_msp.c ****   /* USER CODE END TIM1_MspInit 0 */
 216:Core/Src/stm32f4xx_hal_msp.c ****     /* Peripheral clock enable */
 217:Core/Src/stm32f4xx_hal_msp.c ****     __HAL_RCC_TIM1_CLK_ENABLE();
 218:Core/Src/stm32f4xx_hal_msp.c **** 
 219:Core/Src/stm32f4xx_hal_msp.c ****     __HAL_RCC_GPIOE_CLK_ENABLE();
 220:Core/Src/stm32f4xx_hal_msp.c ****     /**TIM1 GPIO Configuration
 221:Core/Src/stm32f4xx_hal_msp.c ****     PE9     ------> TIM1_CH1
 222:Core/Src/stm32f4xx_hal_msp.c ****     PE11     ------> TIM1_CH2
 223:Core/Src/stm32f4xx_hal_msp.c ****     */
 224:Core/Src/stm32f4xx_hal_msp.c ****     GPIO_InitStruct.Pin = GPIO_PIN_9|GPIO_PIN_11;
 225:Core/Src/stm32f4xx_hal_msp.c ****     GPIO_InitStruct.Mode = GPIO_MODE_AF_PP;
 226:Core/Src/stm32f4xx_hal_msp.c ****     GPIO_InitStruct.Pull = GPIO_NOPULL;
 227:Core/Src/stm32f4xx_hal_msp.c ****     GPIO_InitStruct.Speed = GPIO_SPEED_FREQ_LOW;
 228:Core/Src/stm32f4xx_hal_msp.c ****     GPIO_InitStruct.Alternate = GPIO_AF1_TIM1;
 229:Core/Src/stm32f4xx_hal_msp.c ****     HAL_GPIO_Init(GPIOE, &GPIO_InitStruct);
 230:Core/Src/stm32f4xx_hal_msp.c **** 
 231:Core/Src/stm32f4xx_hal_msp.c ****   /* USER CODE BEGIN TIM1_MspInit 1 */
 232:Core/Src/stm32f4xx_hal_msp.c **** 
 233:Core/Src/stm32f4xx_hal_msp.c ****   /* USER CODE END TIM1_MspInit 1 */
 234:Core/Src/stm32f4xx_hal_msp.c ****   }
 235:Core/Src/stm32f4xx_hal_msp.c ****   else if(htim_encoder->Instance==TIM4)
 440              		.loc 1 235 8 is_stmt 1 view .LVU114
ARM GAS  C:\Users\anmh1\AppData\Local\Temp\ccWs8dQr.s 			page 14


 441              		.loc 1 235 10 is_stmt 0 view .LVU115
 442 0018 304A     		ldr	r2, .L27+4
 443 001a 9342     		cmp	r3, r2
 444 001c 25D0     		beq	.L26
 445              	.LVL20:
 446              	.L21:
 236:Core/Src/stm32f4xx_hal_msp.c ****   {
 237:Core/Src/stm32f4xx_hal_msp.c ****   /* USER CODE BEGIN TIM4_MspInit 0 */
 238:Core/Src/stm32f4xx_hal_msp.c **** 
 239:Core/Src/stm32f4xx_hal_msp.c ****   /* USER CODE END TIM4_MspInit 0 */
 240:Core/Src/stm32f4xx_hal_msp.c ****     /* Peripheral clock enable */
 241:Core/Src/stm32f4xx_hal_msp.c ****     __HAL_RCC_TIM4_CLK_ENABLE();
 242:Core/Src/stm32f4xx_hal_msp.c **** 
 243:Core/Src/stm32f4xx_hal_msp.c ****     __HAL_RCC_GPIOD_CLK_ENABLE();
 244:Core/Src/stm32f4xx_hal_msp.c ****     __HAL_RCC_GPIOB_CLK_ENABLE();
 245:Core/Src/stm32f4xx_hal_msp.c ****     /**TIM4 GPIO Configuration
 246:Core/Src/stm32f4xx_hal_msp.c ****     PD12     ------> TIM4_CH1
 247:Core/Src/stm32f4xx_hal_msp.c ****     PB7     ------> TIM4_CH2
 248:Core/Src/stm32f4xx_hal_msp.c ****     */
 249:Core/Src/stm32f4xx_hal_msp.c ****     GPIO_InitStruct.Pin = GPIO_PIN_12;
 250:Core/Src/stm32f4xx_hal_msp.c ****     GPIO_InitStruct.Mode = GPIO_MODE_AF_PP;
 251:Core/Src/stm32f4xx_hal_msp.c ****     GPIO_InitStruct.Pull = GPIO_NOPULL;
 252:Core/Src/stm32f4xx_hal_msp.c ****     GPIO_InitStruct.Speed = GPIO_SPEED_FREQ_LOW;
 253:Core/Src/stm32f4xx_hal_msp.c ****     GPIO_InitStruct.Alternate = GPIO_AF2_TIM4;
 254:Core/Src/stm32f4xx_hal_msp.c ****     HAL_GPIO_Init(GPIOD, &GPIO_InitStruct);
 255:Core/Src/stm32f4xx_hal_msp.c **** 
 256:Core/Src/stm32f4xx_hal_msp.c ****     GPIO_InitStruct.Pin = GPIO_PIN_7;
 257:Core/Src/stm32f4xx_hal_msp.c ****     GPIO_InitStruct.Mode = GPIO_MODE_AF_PP;
 258:Core/Src/stm32f4xx_hal_msp.c ****     GPIO_InitStruct.Pull = GPIO_NOPULL;
 259:Core/Src/stm32f4xx_hal_msp.c ****     GPIO_InitStruct.Speed = GPIO_SPEED_FREQ_LOW;
 260:Core/Src/stm32f4xx_hal_msp.c ****     GPIO_InitStruct.Alternate = GPIO_AF2_TIM4;
 261:Core/Src/stm32f4xx_hal_msp.c ****     HAL_GPIO_Init(GPIOB, &GPIO_InitStruct);
 262:Core/Src/stm32f4xx_hal_msp.c **** 
 263:Core/Src/stm32f4xx_hal_msp.c ****   /* USER CODE BEGIN TIM4_MspInit 1 */
 264:Core/Src/stm32f4xx_hal_msp.c **** 
 265:Core/Src/stm32f4xx_hal_msp.c ****   /* USER CODE END TIM4_MspInit 1 */
 266:Core/Src/stm32f4xx_hal_msp.c ****   }
 267:Core/Src/stm32f4xx_hal_msp.c **** 
 268:Core/Src/stm32f4xx_hal_msp.c **** }
 447              		.loc 1 268 1 view .LVU116
 448 001e 0BB0     		add	sp, sp, #44
 449              		.cfi_remember_state
 450              		.cfi_def_cfa_offset 12
 451              		@ sp needed
 452 0020 30BD     		pop	{r4, r5, pc}
 453              	.LVL21:
 454              	.L25:
 455              		.cfi_restore_state
 217:Core/Src/stm32f4xx_hal_msp.c **** 
 456              		.loc 1 217 5 is_stmt 1 view .LVU117
 457              	.LBB9:
 217:Core/Src/stm32f4xx_hal_msp.c **** 
 458              		.loc 1 217 5 view .LVU118
 459 0022 0022     		movs	r2, #0
 460 0024 0092     		str	r2, [sp]
 217:Core/Src/stm32f4xx_hal_msp.c **** 
 461              		.loc 1 217 5 view .LVU119
ARM GAS  C:\Users\anmh1\AppData\Local\Temp\ccWs8dQr.s 			page 15


 462 0026 2E4B     		ldr	r3, .L27+8
 463 0028 596C     		ldr	r1, [r3, #68]
 464 002a 41F00101 		orr	r1, r1, #1
 465 002e 5964     		str	r1, [r3, #68]
 217:Core/Src/stm32f4xx_hal_msp.c **** 
 466              		.loc 1 217 5 view .LVU120
 467 0030 596C     		ldr	r1, [r3, #68]
 468 0032 01F00101 		and	r1, r1, #1
 469 0036 0091     		str	r1, [sp]
 217:Core/Src/stm32f4xx_hal_msp.c **** 
 470              		.loc 1 217 5 view .LVU121
 471 0038 0099     		ldr	r1, [sp]
 472              	.LBE9:
 217:Core/Src/stm32f4xx_hal_msp.c **** 
 473              		.loc 1 217 5 view .LVU122
 219:Core/Src/stm32f4xx_hal_msp.c ****     /**TIM1 GPIO Configuration
 474              		.loc 1 219 5 view .LVU123
 475              	.LBB10:
 219:Core/Src/stm32f4xx_hal_msp.c ****     /**TIM1 GPIO Configuration
 476              		.loc 1 219 5 view .LVU124
 477 003a 0192     		str	r2, [sp, #4]
 219:Core/Src/stm32f4xx_hal_msp.c ****     /**TIM1 GPIO Configuration
 478              		.loc 1 219 5 view .LVU125
 479 003c 196B     		ldr	r1, [r3, #48]
 480 003e 41F01001 		orr	r1, r1, #16
 481 0042 1963     		str	r1, [r3, #48]
 219:Core/Src/stm32f4xx_hal_msp.c ****     /**TIM1 GPIO Configuration
 482              		.loc 1 219 5 view .LVU126
 483 0044 1B6B     		ldr	r3, [r3, #48]
 484 0046 03F01003 		and	r3, r3, #16
 485 004a 0193     		str	r3, [sp, #4]
 219:Core/Src/stm32f4xx_hal_msp.c ****     /**TIM1 GPIO Configuration
 486              		.loc 1 219 5 view .LVU127
 487 004c 019B     		ldr	r3, [sp, #4]
 488              	.LBE10:
 219:Core/Src/stm32f4xx_hal_msp.c ****     /**TIM1 GPIO Configuration
 489              		.loc 1 219 5 view .LVU128
 224:Core/Src/stm32f4xx_hal_msp.c ****     GPIO_InitStruct.Mode = GPIO_MODE_AF_PP;
 490              		.loc 1 224 5 view .LVU129
 224:Core/Src/stm32f4xx_hal_msp.c ****     GPIO_InitStruct.Mode = GPIO_MODE_AF_PP;
 491              		.loc 1 224 25 is_stmt 0 view .LVU130
 492 004e 4FF42063 		mov	r3, #2560
 493 0052 0593     		str	r3, [sp, #20]
 225:Core/Src/stm32f4xx_hal_msp.c ****     GPIO_InitStruct.Pull = GPIO_NOPULL;
 494              		.loc 1 225 5 is_stmt 1 view .LVU131
 225:Core/Src/stm32f4xx_hal_msp.c ****     GPIO_InitStruct.Pull = GPIO_NOPULL;
 495              		.loc 1 225 26 is_stmt 0 view .LVU132
 496 0054 0223     		movs	r3, #2
 497 0056 0693     		str	r3, [sp, #24]
 226:Core/Src/stm32f4xx_hal_msp.c ****     GPIO_InitStruct.Speed = GPIO_SPEED_FREQ_LOW;
 498              		.loc 1 226 5 is_stmt 1 view .LVU133
 226:Core/Src/stm32f4xx_hal_msp.c ****     GPIO_InitStruct.Speed = GPIO_SPEED_FREQ_LOW;
 499              		.loc 1 226 26 is_stmt 0 view .LVU134
 500 0058 0792     		str	r2, [sp, #28]
 227:Core/Src/stm32f4xx_hal_msp.c ****     GPIO_InitStruct.Alternate = GPIO_AF1_TIM1;
 501              		.loc 1 227 5 is_stmt 1 view .LVU135
 227:Core/Src/stm32f4xx_hal_msp.c ****     GPIO_InitStruct.Alternate = GPIO_AF1_TIM1;
ARM GAS  C:\Users\anmh1\AppData\Local\Temp\ccWs8dQr.s 			page 16


 502              		.loc 1 227 27 is_stmt 0 view .LVU136
 503 005a 0892     		str	r2, [sp, #32]
 228:Core/Src/stm32f4xx_hal_msp.c ****     HAL_GPIO_Init(GPIOE, &GPIO_InitStruct);
 504              		.loc 1 228 5 is_stmt 1 view .LVU137
 228:Core/Src/stm32f4xx_hal_msp.c ****     HAL_GPIO_Init(GPIOE, &GPIO_InitStruct);
 505              		.loc 1 228 31 is_stmt 0 view .LVU138
 506 005c 0123     		movs	r3, #1
 507 005e 0993     		str	r3, [sp, #36]
 229:Core/Src/stm32f4xx_hal_msp.c **** 
 508              		.loc 1 229 5 is_stmt 1 view .LVU139
 509 0060 05A9     		add	r1, sp, #20
 510 0062 2048     		ldr	r0, .L27+12
 511              	.LVL22:
 229:Core/Src/stm32f4xx_hal_msp.c **** 
 512              		.loc 1 229 5 is_stmt 0 view .LVU140
 513 0064 FFF7FEFF 		bl	HAL_GPIO_Init
 514              	.LVL23:
 515 0068 D9E7     		b	.L21
 516              	.LVL24:
 517              	.L26:
 241:Core/Src/stm32f4xx_hal_msp.c **** 
 518              		.loc 1 241 5 is_stmt 1 view .LVU141
 519              	.LBB11:
 241:Core/Src/stm32f4xx_hal_msp.c **** 
 520              		.loc 1 241 5 view .LVU142
 521 006a 0024     		movs	r4, #0
 522 006c 0294     		str	r4, [sp, #8]
 241:Core/Src/stm32f4xx_hal_msp.c **** 
 523              		.loc 1 241 5 view .LVU143
 524 006e 1C4B     		ldr	r3, .L27+8
 525 0070 1A6C     		ldr	r2, [r3, #64]
 526 0072 42F00402 		orr	r2, r2, #4
 527 0076 1A64     		str	r2, [r3, #64]
 241:Core/Src/stm32f4xx_hal_msp.c **** 
 528              		.loc 1 241 5 view .LVU144
 529 0078 1A6C     		ldr	r2, [r3, #64]
 530 007a 02F00402 		and	r2, r2, #4
 531 007e 0292     		str	r2, [sp, #8]
 241:Core/Src/stm32f4xx_hal_msp.c **** 
 532              		.loc 1 241 5 view .LVU145
 533 0080 029A     		ldr	r2, [sp, #8]
 534              	.LBE11:
 241:Core/Src/stm32f4xx_hal_msp.c **** 
 535              		.loc 1 241 5 view .LVU146
 243:Core/Src/stm32f4xx_hal_msp.c ****     __HAL_RCC_GPIOB_CLK_ENABLE();
 536              		.loc 1 243 5 view .LVU147
 537              	.LBB12:
 243:Core/Src/stm32f4xx_hal_msp.c ****     __HAL_RCC_GPIOB_CLK_ENABLE();
 538              		.loc 1 243 5 view .LVU148
 539 0082 0394     		str	r4, [sp, #12]
 243:Core/Src/stm32f4xx_hal_msp.c ****     __HAL_RCC_GPIOB_CLK_ENABLE();
 540              		.loc 1 243 5 view .LVU149
 541 0084 1A6B     		ldr	r2, [r3, #48]
 542 0086 42F00802 		orr	r2, r2, #8
 543 008a 1A63     		str	r2, [r3, #48]
 243:Core/Src/stm32f4xx_hal_msp.c ****     __HAL_RCC_GPIOB_CLK_ENABLE();
 544              		.loc 1 243 5 view .LVU150
ARM GAS  C:\Users\anmh1\AppData\Local\Temp\ccWs8dQr.s 			page 17


 545 008c 1A6B     		ldr	r2, [r3, #48]
 546 008e 02F00802 		and	r2, r2, #8
 547 0092 0392     		str	r2, [sp, #12]
 243:Core/Src/stm32f4xx_hal_msp.c ****     __HAL_RCC_GPIOB_CLK_ENABLE();
 548              		.loc 1 243 5 view .LVU151
 549 0094 039A     		ldr	r2, [sp, #12]
 550              	.LBE12:
 243:Core/Src/stm32f4xx_hal_msp.c ****     __HAL_RCC_GPIOB_CLK_ENABLE();
 551              		.loc 1 243 5 view .LVU152
 244:Core/Src/stm32f4xx_hal_msp.c ****     /**TIM4 GPIO Configuration
 552              		.loc 1 244 5 view .LVU153
 553              	.LBB13:
 244:Core/Src/stm32f4xx_hal_msp.c ****     /**TIM4 GPIO Configuration
 554              		.loc 1 244 5 view .LVU154
 555 0096 0494     		str	r4, [sp, #16]
 244:Core/Src/stm32f4xx_hal_msp.c ****     /**TIM4 GPIO Configuration
 556              		.loc 1 244 5 view .LVU155
 557 0098 1A6B     		ldr	r2, [r3, #48]
 558 009a 42F00202 		orr	r2, r2, #2
 559 009e 1A63     		str	r2, [r3, #48]
 244:Core/Src/stm32f4xx_hal_msp.c ****     /**TIM4 GPIO Configuration
 560              		.loc 1 244 5 view .LVU156
 561 00a0 1B6B     		ldr	r3, [r3, #48]
 562 00a2 03F00203 		and	r3, r3, #2
 563 00a6 0493     		str	r3, [sp, #16]
 244:Core/Src/stm32f4xx_hal_msp.c ****     /**TIM4 GPIO Configuration
 564              		.loc 1 244 5 view .LVU157
 565 00a8 049B     		ldr	r3, [sp, #16]
 566              	.LBE13:
 244:Core/Src/stm32f4xx_hal_msp.c ****     /**TIM4 GPIO Configuration
 567              		.loc 1 244 5 view .LVU158
 249:Core/Src/stm32f4xx_hal_msp.c ****     GPIO_InitStruct.Mode = GPIO_MODE_AF_PP;
 568              		.loc 1 249 5 view .LVU159
 249:Core/Src/stm32f4xx_hal_msp.c ****     GPIO_InitStruct.Mode = GPIO_MODE_AF_PP;
 569              		.loc 1 249 25 is_stmt 0 view .LVU160
 570 00aa 4FF48053 		mov	r3, #4096
 571 00ae 0593     		str	r3, [sp, #20]
 250:Core/Src/stm32f4xx_hal_msp.c ****     GPIO_InitStruct.Pull = GPIO_NOPULL;
 572              		.loc 1 250 5 is_stmt 1 view .LVU161
 250:Core/Src/stm32f4xx_hal_msp.c ****     GPIO_InitStruct.Pull = GPIO_NOPULL;
 573              		.loc 1 250 26 is_stmt 0 view .LVU162
 574 00b0 0225     		movs	r5, #2
 575 00b2 0695     		str	r5, [sp, #24]
 251:Core/Src/stm32f4xx_hal_msp.c ****     GPIO_InitStruct.Speed = GPIO_SPEED_FREQ_LOW;
 576              		.loc 1 251 5 is_stmt 1 view .LVU163
 251:Core/Src/stm32f4xx_hal_msp.c ****     GPIO_InitStruct.Speed = GPIO_SPEED_FREQ_LOW;
 577              		.loc 1 251 26 is_stmt 0 view .LVU164
 578 00b4 0794     		str	r4, [sp, #28]
 252:Core/Src/stm32f4xx_hal_msp.c ****     GPIO_InitStruct.Alternate = GPIO_AF2_TIM4;
 579              		.loc 1 252 5 is_stmt 1 view .LVU165
 252:Core/Src/stm32f4xx_hal_msp.c ****     GPIO_InitStruct.Alternate = GPIO_AF2_TIM4;
 580              		.loc 1 252 27 is_stmt 0 view .LVU166
 581 00b6 0894     		str	r4, [sp, #32]
 253:Core/Src/stm32f4xx_hal_msp.c ****     HAL_GPIO_Init(GPIOD, &GPIO_InitStruct);
 582              		.loc 1 253 5 is_stmt 1 view .LVU167
 253:Core/Src/stm32f4xx_hal_msp.c ****     HAL_GPIO_Init(GPIOD, &GPIO_InitStruct);
 583              		.loc 1 253 31 is_stmt 0 view .LVU168
ARM GAS  C:\Users\anmh1\AppData\Local\Temp\ccWs8dQr.s 			page 18


 584 00b8 0995     		str	r5, [sp, #36]
 254:Core/Src/stm32f4xx_hal_msp.c **** 
 585              		.loc 1 254 5 is_stmt 1 view .LVU169
 586 00ba 05A9     		add	r1, sp, #20
 587 00bc 0A48     		ldr	r0, .L27+16
 588              	.LVL25:
 254:Core/Src/stm32f4xx_hal_msp.c **** 
 589              		.loc 1 254 5 is_stmt 0 view .LVU170
 590 00be FFF7FEFF 		bl	HAL_GPIO_Init
 591              	.LVL26:
 256:Core/Src/stm32f4xx_hal_msp.c ****     GPIO_InitStruct.Mode = GPIO_MODE_AF_PP;
 592              		.loc 1 256 5 is_stmt 1 view .LVU171
 256:Core/Src/stm32f4xx_hal_msp.c ****     GPIO_InitStruct.Mode = GPIO_MODE_AF_PP;
 593              		.loc 1 256 25 is_stmt 0 view .LVU172
 594 00c2 8023     		movs	r3, #128
 595 00c4 0593     		str	r3, [sp, #20]
 257:Core/Src/stm32f4xx_hal_msp.c ****     GPIO_InitStruct.Pull = GPIO_NOPULL;
 596              		.loc 1 257 5 is_stmt 1 view .LVU173
 257:Core/Src/stm32f4xx_hal_msp.c ****     GPIO_InitStruct.Pull = GPIO_NOPULL;
 597              		.loc 1 257 26 is_stmt 0 view .LVU174
 598 00c6 0695     		str	r5, [sp, #24]
 258:Core/Src/stm32f4xx_hal_msp.c ****     GPIO_InitStruct.Speed = GPIO_SPEED_FREQ_LOW;
 599              		.loc 1 258 5 is_stmt 1 view .LVU175
 258:Core/Src/stm32f4xx_hal_msp.c ****     GPIO_InitStruct.Speed = GPIO_SPEED_FREQ_LOW;
 600              		.loc 1 258 26 is_stmt 0 view .LVU176
 601 00c8 0794     		str	r4, [sp, #28]
 259:Core/Src/stm32f4xx_hal_msp.c ****     GPIO_InitStruct.Alternate = GPIO_AF2_TIM4;
 602              		.loc 1 259 5 is_stmt 1 view .LVU177
 259:Core/Src/stm32f4xx_hal_msp.c ****     GPIO_InitStruct.Alternate = GPIO_AF2_TIM4;
 603              		.loc 1 259 27 is_stmt 0 view .LVU178
 604 00ca 0894     		str	r4, [sp, #32]
 260:Core/Src/stm32f4xx_hal_msp.c ****     HAL_GPIO_Init(GPIOB, &GPIO_InitStruct);
 605              		.loc 1 260 5 is_stmt 1 view .LVU179
 260:Core/Src/stm32f4xx_hal_msp.c ****     HAL_GPIO_Init(GPIOB, &GPIO_InitStruct);
 606              		.loc 1 260 31 is_stmt 0 view .LVU180
 607 00cc 0995     		str	r5, [sp, #36]
 261:Core/Src/stm32f4xx_hal_msp.c **** 
 608              		.loc 1 261 5 is_stmt 1 view .LVU181
 609 00ce 05A9     		add	r1, sp, #20
 610 00d0 0648     		ldr	r0, .L27+20
 611 00d2 FFF7FEFF 		bl	HAL_GPIO_Init
 612              	.LVL27:
 613              		.loc 1 268 1 is_stmt 0 view .LVU182
 614 00d6 A2E7     		b	.L21
 615              	.L28:
 616              		.align	2
 617              	.L27:
 618 00d8 00000140 		.word	1073807360
 619 00dc 00080040 		.word	1073743872
 620 00e0 00380240 		.word	1073887232
 621 00e4 00100240 		.word	1073876992
 622 00e8 000C0240 		.word	1073875968
 623 00ec 00040240 		.word	1073873920
 624              		.cfi_endproc
 625              	.LFE133:
 627              		.section	.text.HAL_TIM_Base_MspInit,"ax",%progbits
 628              		.align	1
ARM GAS  C:\Users\anmh1\AppData\Local\Temp\ccWs8dQr.s 			page 19


 629              		.global	HAL_TIM_Base_MspInit
 630              		.syntax unified
 631              		.thumb
 632              		.thumb_func
 633              		.fpu fpv4-sp-d16
 635              	HAL_TIM_Base_MspInit:
 636              	.LVL28:
 637              	.LFB134:
 269:Core/Src/stm32f4xx_hal_msp.c **** 
 270:Core/Src/stm32f4xx_hal_msp.c **** /**
 271:Core/Src/stm32f4xx_hal_msp.c **** * @brief TIM_Base MSP Initialization
 272:Core/Src/stm32f4xx_hal_msp.c **** * This function configures the hardware resources used in this example
 273:Core/Src/stm32f4xx_hal_msp.c **** * @param htim_base: TIM_Base handle pointer
 274:Core/Src/stm32f4xx_hal_msp.c **** * @retval None
 275:Core/Src/stm32f4xx_hal_msp.c **** */
 276:Core/Src/stm32f4xx_hal_msp.c **** void HAL_TIM_Base_MspInit(TIM_HandleTypeDef* htim_base)
 277:Core/Src/stm32f4xx_hal_msp.c **** {
 638              		.loc 1 277 1 is_stmt 1 view -0
 639              		.cfi_startproc
 640              		@ args = 0, pretend = 0, frame = 8
 641              		@ frame_needed = 0, uses_anonymous_args = 0
 642              		@ link register save eliminated.
 278:Core/Src/stm32f4xx_hal_msp.c ****   if(htim_base->Instance==TIM2)
 643              		.loc 1 278 3 view .LVU184
 644              		.loc 1 278 15 is_stmt 0 view .LVU185
 645 0000 0368     		ldr	r3, [r0]
 646              		.loc 1 278 5 view .LVU186
 647 0002 B3F1804F 		cmp	r3, #1073741824
 648 0006 00D0     		beq	.L35
 649 0008 7047     		bx	lr
 650              	.L35:
 277:Core/Src/stm32f4xx_hal_msp.c ****   if(htim_base->Instance==TIM2)
 651              		.loc 1 277 1 view .LVU187
 652 000a 82B0     		sub	sp, sp, #8
 653              		.cfi_def_cfa_offset 8
 279:Core/Src/stm32f4xx_hal_msp.c ****   {
 280:Core/Src/stm32f4xx_hal_msp.c ****   /* USER CODE BEGIN TIM2_MspInit 0 */
 281:Core/Src/stm32f4xx_hal_msp.c **** 
 282:Core/Src/stm32f4xx_hal_msp.c ****   /* USER CODE END TIM2_MspInit 0 */
 283:Core/Src/stm32f4xx_hal_msp.c ****     /* Peripheral clock enable */
 284:Core/Src/stm32f4xx_hal_msp.c ****     __HAL_RCC_TIM2_CLK_ENABLE();
 654              		.loc 1 284 5 is_stmt 1 view .LVU188
 655              	.LBB14:
 656              		.loc 1 284 5 view .LVU189
 657 000c 0023     		movs	r3, #0
 658 000e 0193     		str	r3, [sp, #4]
 659              		.loc 1 284 5 view .LVU190
 660 0010 054B     		ldr	r3, .L36
 661 0012 1A6C     		ldr	r2, [r3, #64]
 662 0014 42F00102 		orr	r2, r2, #1
 663 0018 1A64     		str	r2, [r3, #64]
 664              		.loc 1 284 5 view .LVU191
 665 001a 1B6C     		ldr	r3, [r3, #64]
 666 001c 03F00103 		and	r3, r3, #1
 667 0020 0193     		str	r3, [sp, #4]
 668              		.loc 1 284 5 view .LVU192
 669 0022 019B     		ldr	r3, [sp, #4]
ARM GAS  C:\Users\anmh1\AppData\Local\Temp\ccWs8dQr.s 			page 20


 670              	.LBE14:
 671              		.loc 1 284 5 view .LVU193
 285:Core/Src/stm32f4xx_hal_msp.c ****   /* USER CODE BEGIN TIM2_MspInit 1 */
 286:Core/Src/stm32f4xx_hal_msp.c **** 
 287:Core/Src/stm32f4xx_hal_msp.c ****   /* USER CODE END TIM2_MspInit 1 */
 288:Core/Src/stm32f4xx_hal_msp.c ****   }
 289:Core/Src/stm32f4xx_hal_msp.c **** 
 290:Core/Src/stm32f4xx_hal_msp.c **** }
 672              		.loc 1 290 1 is_stmt 0 view .LVU194
 673 0024 02B0     		add	sp, sp, #8
 674              		.cfi_def_cfa_offset 0
 675              		@ sp needed
 676 0026 7047     		bx	lr
 677              	.L37:
 678              		.align	2
 679              	.L36:
 680 0028 00380240 		.word	1073887232
 681              		.cfi_endproc
 682              	.LFE134:
 684              		.section	.text.HAL_TIM_MspPostInit,"ax",%progbits
 685              		.align	1
 686              		.global	HAL_TIM_MspPostInit
 687              		.syntax unified
 688              		.thumb
 689              		.thumb_func
 690              		.fpu fpv4-sp-d16
 692              	HAL_TIM_MspPostInit:
 693              	.LVL29:
 694              	.LFB135:
 291:Core/Src/stm32f4xx_hal_msp.c **** 
 292:Core/Src/stm32f4xx_hal_msp.c **** void HAL_TIM_MspPostInit(TIM_HandleTypeDef* htim)
 293:Core/Src/stm32f4xx_hal_msp.c **** {
 695              		.loc 1 293 1 is_stmt 1 view -0
 696              		.cfi_startproc
 697              		@ args = 0, pretend = 0, frame = 24
 698              		@ frame_needed = 0, uses_anonymous_args = 0
 699              		.loc 1 293 1 is_stmt 0 view .LVU196
 700 0000 00B5     		push	{lr}
 701              		.cfi_def_cfa_offset 4
 702              		.cfi_offset 14, -4
 703 0002 87B0     		sub	sp, sp, #28
 704              		.cfi_def_cfa_offset 32
 294:Core/Src/stm32f4xx_hal_msp.c ****   GPIO_InitTypeDef GPIO_InitStruct = {0};
 705              		.loc 1 294 3 is_stmt 1 view .LVU197
 706              		.loc 1 294 20 is_stmt 0 view .LVU198
 707 0004 0023     		movs	r3, #0
 708 0006 0193     		str	r3, [sp, #4]
 709 0008 0293     		str	r3, [sp, #8]
 710 000a 0393     		str	r3, [sp, #12]
 711 000c 0493     		str	r3, [sp, #16]
 712 000e 0593     		str	r3, [sp, #20]
 295:Core/Src/stm32f4xx_hal_msp.c ****   if(htim->Instance==TIM2)
 713              		.loc 1 295 3 is_stmt 1 view .LVU199
 714              		.loc 1 295 10 is_stmt 0 view .LVU200
 715 0010 0368     		ldr	r3, [r0]
 716              		.loc 1 295 5 view .LVU201
 717 0012 B3F1804F 		cmp	r3, #1073741824
ARM GAS  C:\Users\anmh1\AppData\Local\Temp\ccWs8dQr.s 			page 21


 718 0016 02D0     		beq	.L41
 719              	.LVL30:
 720              	.L38:
 296:Core/Src/stm32f4xx_hal_msp.c ****   {
 297:Core/Src/stm32f4xx_hal_msp.c ****   /* USER CODE BEGIN TIM2_MspPostInit 0 */
 298:Core/Src/stm32f4xx_hal_msp.c **** 
 299:Core/Src/stm32f4xx_hal_msp.c ****   /* USER CODE END TIM2_MspPostInit 0 */
 300:Core/Src/stm32f4xx_hal_msp.c **** 
 301:Core/Src/stm32f4xx_hal_msp.c ****     __HAL_RCC_GPIOA_CLK_ENABLE();
 302:Core/Src/stm32f4xx_hal_msp.c ****     /**TIM2 GPIO Configuration
 303:Core/Src/stm32f4xx_hal_msp.c ****     PA1     ------> TIM2_CH2
 304:Core/Src/stm32f4xx_hal_msp.c ****     PA5     ------> TIM2_CH1
 305:Core/Src/stm32f4xx_hal_msp.c ****     */
 306:Core/Src/stm32f4xx_hal_msp.c ****     GPIO_InitStruct.Pin = GPIO_PIN_1|GPIO_PIN_5;
 307:Core/Src/stm32f4xx_hal_msp.c ****     GPIO_InitStruct.Mode = GPIO_MODE_AF_PP;
 308:Core/Src/stm32f4xx_hal_msp.c ****     GPIO_InitStruct.Pull = GPIO_NOPULL;
 309:Core/Src/stm32f4xx_hal_msp.c ****     GPIO_InitStruct.Speed = GPIO_SPEED_FREQ_LOW;
 310:Core/Src/stm32f4xx_hal_msp.c ****     GPIO_InitStruct.Alternate = GPIO_AF1_TIM2;
 311:Core/Src/stm32f4xx_hal_msp.c ****     HAL_GPIO_Init(GPIOA, &GPIO_InitStruct);
 312:Core/Src/stm32f4xx_hal_msp.c **** 
 313:Core/Src/stm32f4xx_hal_msp.c ****   /* USER CODE BEGIN TIM2_MspPostInit 1 */
 314:Core/Src/stm32f4xx_hal_msp.c **** 
 315:Core/Src/stm32f4xx_hal_msp.c ****   /* USER CODE END TIM2_MspPostInit 1 */
 316:Core/Src/stm32f4xx_hal_msp.c ****   }
 317:Core/Src/stm32f4xx_hal_msp.c **** 
 318:Core/Src/stm32f4xx_hal_msp.c **** }
 721              		.loc 1 318 1 view .LVU202
 722 0018 07B0     		add	sp, sp, #28
 723              		.cfi_remember_state
 724              		.cfi_def_cfa_offset 4
 725              		@ sp needed
 726 001a 5DF804FB 		ldr	pc, [sp], #4
 727              	.LVL31:
 728              	.L41:
 729              		.cfi_restore_state
 301:Core/Src/stm32f4xx_hal_msp.c ****     /**TIM2 GPIO Configuration
 730              		.loc 1 301 5 is_stmt 1 view .LVU203
 731              	.LBB15:
 301:Core/Src/stm32f4xx_hal_msp.c ****     /**TIM2 GPIO Configuration
 732              		.loc 1 301 5 view .LVU204
 733 001e 0023     		movs	r3, #0
 734 0020 0093     		str	r3, [sp]
 301:Core/Src/stm32f4xx_hal_msp.c ****     /**TIM2 GPIO Configuration
 735              		.loc 1 301 5 view .LVU205
 736 0022 0B4A     		ldr	r2, .L42
 737 0024 116B     		ldr	r1, [r2, #48]
 738 0026 41F00101 		orr	r1, r1, #1
 739 002a 1163     		str	r1, [r2, #48]
 301:Core/Src/stm32f4xx_hal_msp.c ****     /**TIM2 GPIO Configuration
 740              		.loc 1 301 5 view .LVU206
 741 002c 126B     		ldr	r2, [r2, #48]
 742 002e 02F00102 		and	r2, r2, #1
 743 0032 0092     		str	r2, [sp]
 301:Core/Src/stm32f4xx_hal_msp.c ****     /**TIM2 GPIO Configuration
 744              		.loc 1 301 5 view .LVU207
 745 0034 009A     		ldr	r2, [sp]
 746              	.LBE15:
ARM GAS  C:\Users\anmh1\AppData\Local\Temp\ccWs8dQr.s 			page 22


 301:Core/Src/stm32f4xx_hal_msp.c ****     /**TIM2 GPIO Configuration
 747              		.loc 1 301 5 view .LVU208
 306:Core/Src/stm32f4xx_hal_msp.c ****     GPIO_InitStruct.Mode = GPIO_MODE_AF_PP;
 748              		.loc 1 306 5 view .LVU209
 306:Core/Src/stm32f4xx_hal_msp.c ****     GPIO_InitStruct.Mode = GPIO_MODE_AF_PP;
 749              		.loc 1 306 25 is_stmt 0 view .LVU210
 750 0036 2222     		movs	r2, #34
 751 0038 0192     		str	r2, [sp, #4]
 307:Core/Src/stm32f4xx_hal_msp.c ****     GPIO_InitStruct.Pull = GPIO_NOPULL;
 752              		.loc 1 307 5 is_stmt 1 view .LVU211
 307:Core/Src/stm32f4xx_hal_msp.c ****     GPIO_InitStruct.Pull = GPIO_NOPULL;
 753              		.loc 1 307 26 is_stmt 0 view .LVU212
 754 003a 0222     		movs	r2, #2
 755 003c 0292     		str	r2, [sp, #8]
 308:Core/Src/stm32f4xx_hal_msp.c ****     GPIO_InitStruct.Speed = GPIO_SPEED_FREQ_LOW;
 756              		.loc 1 308 5 is_stmt 1 view .LVU213
 308:Core/Src/stm32f4xx_hal_msp.c ****     GPIO_InitStruct.Speed = GPIO_SPEED_FREQ_LOW;
 757              		.loc 1 308 26 is_stmt 0 view .LVU214
 758 003e 0393     		str	r3, [sp, #12]
 309:Core/Src/stm32f4xx_hal_msp.c ****     GPIO_InitStruct.Alternate = GPIO_AF1_TIM2;
 759              		.loc 1 309 5 is_stmt 1 view .LVU215
 309:Core/Src/stm32f4xx_hal_msp.c ****     GPIO_InitStruct.Alternate = GPIO_AF1_TIM2;
 760              		.loc 1 309 27 is_stmt 0 view .LVU216
 761 0040 0493     		str	r3, [sp, #16]
 310:Core/Src/stm32f4xx_hal_msp.c ****     HAL_GPIO_Init(GPIOA, &GPIO_InitStruct);
 762              		.loc 1 310 5 is_stmt 1 view .LVU217
 310:Core/Src/stm32f4xx_hal_msp.c ****     HAL_GPIO_Init(GPIOA, &GPIO_InitStruct);
 763              		.loc 1 310 31 is_stmt 0 view .LVU218
 764 0042 0123     		movs	r3, #1
 765 0044 0593     		str	r3, [sp, #20]
 311:Core/Src/stm32f4xx_hal_msp.c **** 
 766              		.loc 1 311 5 is_stmt 1 view .LVU219
 767 0046 01A9     		add	r1, sp, #4
 768 0048 0248     		ldr	r0, .L42+4
 769              	.LVL32:
 311:Core/Src/stm32f4xx_hal_msp.c **** 
 770              		.loc 1 311 5 is_stmt 0 view .LVU220
 771 004a FFF7FEFF 		bl	HAL_GPIO_Init
 772              	.LVL33:
 773              		.loc 1 318 1 view .LVU221
 774 004e E3E7     		b	.L38
 775              	.L43:
 776              		.align	2
 777              	.L42:
 778 0050 00380240 		.word	1073887232
 779 0054 00000240 		.word	1073872896
 780              		.cfi_endproc
 781              	.LFE135:
 783              		.section	.text.HAL_TIM_Encoder_MspDeInit,"ax",%progbits
 784              		.align	1
 785              		.global	HAL_TIM_Encoder_MspDeInit
 786              		.syntax unified
 787              		.thumb
 788              		.thumb_func
 789              		.fpu fpv4-sp-d16
 791              	HAL_TIM_Encoder_MspDeInit:
 792              	.LVL34:
ARM GAS  C:\Users\anmh1\AppData\Local\Temp\ccWs8dQr.s 			page 23


 793              	.LFB136:
 319:Core/Src/stm32f4xx_hal_msp.c **** /**
 320:Core/Src/stm32f4xx_hal_msp.c **** * @brief TIM_Encoder MSP De-Initialization
 321:Core/Src/stm32f4xx_hal_msp.c **** * This function freeze the hardware resources used in this example
 322:Core/Src/stm32f4xx_hal_msp.c **** * @param htim_encoder: TIM_Encoder handle pointer
 323:Core/Src/stm32f4xx_hal_msp.c **** * @retval None
 324:Core/Src/stm32f4xx_hal_msp.c **** */
 325:Core/Src/stm32f4xx_hal_msp.c **** void HAL_TIM_Encoder_MspDeInit(TIM_HandleTypeDef* htim_encoder)
 326:Core/Src/stm32f4xx_hal_msp.c **** {
 794              		.loc 1 326 1 is_stmt 1 view -0
 795              		.cfi_startproc
 796              		@ args = 0, pretend = 0, frame = 0
 797              		@ frame_needed = 0, uses_anonymous_args = 0
 798              		.loc 1 326 1 is_stmt 0 view .LVU223
 799 0000 08B5     		push	{r3, lr}
 800              		.cfi_def_cfa_offset 8
 801              		.cfi_offset 3, -8
 802              		.cfi_offset 14, -4
 327:Core/Src/stm32f4xx_hal_msp.c ****   if(htim_encoder->Instance==TIM1)
 803              		.loc 1 327 3 is_stmt 1 view .LVU224
 804              		.loc 1 327 18 is_stmt 0 view .LVU225
 805 0002 0368     		ldr	r3, [r0]
 806              		.loc 1 327 5 view .LVU226
 807 0004 114A     		ldr	r2, .L50
 808 0006 9342     		cmp	r3, r2
 809 0008 03D0     		beq	.L48
 328:Core/Src/stm32f4xx_hal_msp.c ****   {
 329:Core/Src/stm32f4xx_hal_msp.c ****   /* USER CODE BEGIN TIM1_MspDeInit 0 */
 330:Core/Src/stm32f4xx_hal_msp.c **** 
 331:Core/Src/stm32f4xx_hal_msp.c ****   /* USER CODE END TIM1_MspDeInit 0 */
 332:Core/Src/stm32f4xx_hal_msp.c ****     /* Peripheral clock disable */
 333:Core/Src/stm32f4xx_hal_msp.c ****     __HAL_RCC_TIM1_CLK_DISABLE();
 334:Core/Src/stm32f4xx_hal_msp.c **** 
 335:Core/Src/stm32f4xx_hal_msp.c ****     /**TIM1 GPIO Configuration
 336:Core/Src/stm32f4xx_hal_msp.c ****     PE9     ------> TIM1_CH1
 337:Core/Src/stm32f4xx_hal_msp.c ****     PE11     ------> TIM1_CH2
 338:Core/Src/stm32f4xx_hal_msp.c ****     */
 339:Core/Src/stm32f4xx_hal_msp.c ****     HAL_GPIO_DeInit(GPIOE, GPIO_PIN_9|GPIO_PIN_11);
 340:Core/Src/stm32f4xx_hal_msp.c **** 
 341:Core/Src/stm32f4xx_hal_msp.c ****   /* USER CODE BEGIN TIM1_MspDeInit 1 */
 342:Core/Src/stm32f4xx_hal_msp.c **** 
 343:Core/Src/stm32f4xx_hal_msp.c ****   /* USER CODE END TIM1_MspDeInit 1 */
 344:Core/Src/stm32f4xx_hal_msp.c ****   }
 345:Core/Src/stm32f4xx_hal_msp.c ****   else if(htim_encoder->Instance==TIM4)
 810              		.loc 1 345 8 is_stmt 1 view .LVU227
 811              		.loc 1 345 10 is_stmt 0 view .LVU228
 812 000a 114A     		ldr	r2, .L50+4
 813 000c 9342     		cmp	r3, r2
 814 000e 0CD0     		beq	.L49
 815              	.LVL35:
 816              	.L44:
 346:Core/Src/stm32f4xx_hal_msp.c ****   {
 347:Core/Src/stm32f4xx_hal_msp.c ****   /* USER CODE BEGIN TIM4_MspDeInit 0 */
 348:Core/Src/stm32f4xx_hal_msp.c **** 
 349:Core/Src/stm32f4xx_hal_msp.c ****   /* USER CODE END TIM4_MspDeInit 0 */
 350:Core/Src/stm32f4xx_hal_msp.c ****     /* Peripheral clock disable */
 351:Core/Src/stm32f4xx_hal_msp.c ****     __HAL_RCC_TIM4_CLK_DISABLE();
ARM GAS  C:\Users\anmh1\AppData\Local\Temp\ccWs8dQr.s 			page 24


 352:Core/Src/stm32f4xx_hal_msp.c **** 
 353:Core/Src/stm32f4xx_hal_msp.c ****     /**TIM4 GPIO Configuration
 354:Core/Src/stm32f4xx_hal_msp.c ****     PD12     ------> TIM4_CH1
 355:Core/Src/stm32f4xx_hal_msp.c ****     PB7     ------> TIM4_CH2
 356:Core/Src/stm32f4xx_hal_msp.c ****     */
 357:Core/Src/stm32f4xx_hal_msp.c ****     HAL_GPIO_DeInit(GPIOD, GPIO_PIN_12);
 358:Core/Src/stm32f4xx_hal_msp.c **** 
 359:Core/Src/stm32f4xx_hal_msp.c ****     HAL_GPIO_DeInit(GPIOB, GPIO_PIN_7);
 360:Core/Src/stm32f4xx_hal_msp.c **** 
 361:Core/Src/stm32f4xx_hal_msp.c ****   /* USER CODE BEGIN TIM4_MspDeInit 1 */
 362:Core/Src/stm32f4xx_hal_msp.c **** 
 363:Core/Src/stm32f4xx_hal_msp.c ****   /* USER CODE END TIM4_MspDeInit 1 */
 364:Core/Src/stm32f4xx_hal_msp.c ****   }
 365:Core/Src/stm32f4xx_hal_msp.c **** 
 366:Core/Src/stm32f4xx_hal_msp.c **** }
 817              		.loc 1 366 1 view .LVU229
 818 0010 08BD     		pop	{r3, pc}
 819              	.LVL36:
 820              	.L48:
 333:Core/Src/stm32f4xx_hal_msp.c **** 
 821              		.loc 1 333 5 is_stmt 1 view .LVU230
 822 0012 02F59C32 		add	r2, r2, #79872
 823 0016 536C     		ldr	r3, [r2, #68]
 824 0018 23F00103 		bic	r3, r3, #1
 825 001c 5364     		str	r3, [r2, #68]
 339:Core/Src/stm32f4xx_hal_msp.c **** 
 826              		.loc 1 339 5 view .LVU231
 827 001e 4FF42061 		mov	r1, #2560
 828 0022 0C48     		ldr	r0, .L50+8
 829              	.LVL37:
 339:Core/Src/stm32f4xx_hal_msp.c **** 
 830              		.loc 1 339 5 is_stmt 0 view .LVU232
 831 0024 FFF7FEFF 		bl	HAL_GPIO_DeInit
 832              	.LVL38:
 833 0028 F2E7     		b	.L44
 834              	.LVL39:
 835              	.L49:
 351:Core/Src/stm32f4xx_hal_msp.c **** 
 836              		.loc 1 351 5 is_stmt 1 view .LVU233
 837 002a 02F50C32 		add	r2, r2, #143360
 838 002e 136C     		ldr	r3, [r2, #64]
 839 0030 23F00403 		bic	r3, r3, #4
 840 0034 1364     		str	r3, [r2, #64]
 357:Core/Src/stm32f4xx_hal_msp.c **** 
 841              		.loc 1 357 5 view .LVU234
 842 0036 4FF48051 		mov	r1, #4096
 843 003a 0748     		ldr	r0, .L50+12
 844              	.LVL40:
 357:Core/Src/stm32f4xx_hal_msp.c **** 
 845              		.loc 1 357 5 is_stmt 0 view .LVU235
 846 003c FFF7FEFF 		bl	HAL_GPIO_DeInit
 847              	.LVL41:
 359:Core/Src/stm32f4xx_hal_msp.c **** 
 848              		.loc 1 359 5 is_stmt 1 view .LVU236
 849 0040 8021     		movs	r1, #128
 850 0042 0648     		ldr	r0, .L50+16
 851 0044 FFF7FEFF 		bl	HAL_GPIO_DeInit
ARM GAS  C:\Users\anmh1\AppData\Local\Temp\ccWs8dQr.s 			page 25


 852              	.LVL42:
 853              		.loc 1 366 1 is_stmt 0 view .LVU237
 854 0048 E2E7     		b	.L44
 855              	.L51:
 856 004a 00BF     		.align	2
 857              	.L50:
 858 004c 00000140 		.word	1073807360
 859 0050 00080040 		.word	1073743872
 860 0054 00100240 		.word	1073876992
 861 0058 000C0240 		.word	1073875968
 862 005c 00040240 		.word	1073873920
 863              		.cfi_endproc
 864              	.LFE136:
 866              		.section	.text.HAL_TIM_Base_MspDeInit,"ax",%progbits
 867              		.align	1
 868              		.global	HAL_TIM_Base_MspDeInit
 869              		.syntax unified
 870              		.thumb
 871              		.thumb_func
 872              		.fpu fpv4-sp-d16
 874              	HAL_TIM_Base_MspDeInit:
 875              	.LVL43:
 876              	.LFB137:
 367:Core/Src/stm32f4xx_hal_msp.c **** 
 368:Core/Src/stm32f4xx_hal_msp.c **** /**
 369:Core/Src/stm32f4xx_hal_msp.c **** * @brief TIM_Base MSP De-Initialization
 370:Core/Src/stm32f4xx_hal_msp.c **** * This function freeze the hardware resources used in this example
 371:Core/Src/stm32f4xx_hal_msp.c **** * @param htim_base: TIM_Base handle pointer
 372:Core/Src/stm32f4xx_hal_msp.c **** * @retval None
 373:Core/Src/stm32f4xx_hal_msp.c **** */
 374:Core/Src/stm32f4xx_hal_msp.c **** void HAL_TIM_Base_MspDeInit(TIM_HandleTypeDef* htim_base)
 375:Core/Src/stm32f4xx_hal_msp.c **** {
 877              		.loc 1 375 1 is_stmt 1 view -0
 878              		.cfi_startproc
 879              		@ args = 0, pretend = 0, frame = 0
 880              		@ frame_needed = 0, uses_anonymous_args = 0
 881              		@ link register save eliminated.
 376:Core/Src/stm32f4xx_hal_msp.c ****   if(htim_base->Instance==TIM2)
 882              		.loc 1 376 3 view .LVU239
 883              		.loc 1 376 15 is_stmt 0 view .LVU240
 884 0000 0368     		ldr	r3, [r0]
 885              		.loc 1 376 5 view .LVU241
 886 0002 B3F1804F 		cmp	r3, #1073741824
 887 0006 00D0     		beq	.L54
 888              	.L52:
 377:Core/Src/stm32f4xx_hal_msp.c ****   {
 378:Core/Src/stm32f4xx_hal_msp.c ****   /* USER CODE BEGIN TIM2_MspDeInit 0 */
 379:Core/Src/stm32f4xx_hal_msp.c **** 
 380:Core/Src/stm32f4xx_hal_msp.c ****   /* USER CODE END TIM2_MspDeInit 0 */
 381:Core/Src/stm32f4xx_hal_msp.c ****     /* Peripheral clock disable */
 382:Core/Src/stm32f4xx_hal_msp.c ****     __HAL_RCC_TIM2_CLK_DISABLE();
 383:Core/Src/stm32f4xx_hal_msp.c ****   /* USER CODE BEGIN TIM2_MspDeInit 1 */
 384:Core/Src/stm32f4xx_hal_msp.c **** 
 385:Core/Src/stm32f4xx_hal_msp.c ****   /* USER CODE END TIM2_MspDeInit 1 */
 386:Core/Src/stm32f4xx_hal_msp.c ****   }
 387:Core/Src/stm32f4xx_hal_msp.c **** 
 388:Core/Src/stm32f4xx_hal_msp.c **** }
ARM GAS  C:\Users\anmh1\AppData\Local\Temp\ccWs8dQr.s 			page 26


 889              		.loc 1 388 1 view .LVU242
 890 0008 7047     		bx	lr
 891              	.L54:
 382:Core/Src/stm32f4xx_hal_msp.c ****   /* USER CODE BEGIN TIM2_MspDeInit 1 */
 892              		.loc 1 382 5 is_stmt 1 view .LVU243
 893 000a 034A     		ldr	r2, .L55
 894 000c 136C     		ldr	r3, [r2, #64]
 895 000e 23F00103 		bic	r3, r3, #1
 896 0012 1364     		str	r3, [r2, #64]
 897              		.loc 1 388 1 is_stmt 0 view .LVU244
 898 0014 F8E7     		b	.L52
 899              	.L56:
 900 0016 00BF     		.align	2
 901              	.L55:
 902 0018 00380240 		.word	1073887232
 903              		.cfi_endproc
 904              	.LFE137:
 906              		.section	.text.HAL_UART_MspInit,"ax",%progbits
 907              		.align	1
 908              		.global	HAL_UART_MspInit
 909              		.syntax unified
 910              		.thumb
 911              		.thumb_func
 912              		.fpu fpv4-sp-d16
 914              	HAL_UART_MspInit:
 915              	.LVL44:
 916              	.LFB138:
 389:Core/Src/stm32f4xx_hal_msp.c **** 
 390:Core/Src/stm32f4xx_hal_msp.c **** /**
 391:Core/Src/stm32f4xx_hal_msp.c **** * @brief UART MSP Initialization
 392:Core/Src/stm32f4xx_hal_msp.c **** * This function configures the hardware resources used in this example
 393:Core/Src/stm32f4xx_hal_msp.c **** * @param huart: UART handle pointer
 394:Core/Src/stm32f4xx_hal_msp.c **** * @retval None
 395:Core/Src/stm32f4xx_hal_msp.c **** */
 396:Core/Src/stm32f4xx_hal_msp.c **** void HAL_UART_MspInit(UART_HandleTypeDef* huart)
 397:Core/Src/stm32f4xx_hal_msp.c **** {
 917              		.loc 1 397 1 is_stmt 1 view -0
 918              		.cfi_startproc
 919              		@ args = 0, pretend = 0, frame = 40
 920              		@ frame_needed = 0, uses_anonymous_args = 0
 921              		.loc 1 397 1 is_stmt 0 view .LVU246
 922 0000 30B5     		push	{r4, r5, lr}
 923              		.cfi_def_cfa_offset 12
 924              		.cfi_offset 4, -12
 925              		.cfi_offset 5, -8
 926              		.cfi_offset 14, -4
 927 0002 8BB0     		sub	sp, sp, #44
 928              		.cfi_def_cfa_offset 56
 398:Core/Src/stm32f4xx_hal_msp.c ****   GPIO_InitTypeDef GPIO_InitStruct = {0};
 929              		.loc 1 398 3 is_stmt 1 view .LVU247
 930              		.loc 1 398 20 is_stmt 0 view .LVU248
 931 0004 0023     		movs	r3, #0
 932 0006 0593     		str	r3, [sp, #20]
 933 0008 0693     		str	r3, [sp, #24]
 934 000a 0793     		str	r3, [sp, #28]
 935 000c 0893     		str	r3, [sp, #32]
 936 000e 0993     		str	r3, [sp, #36]
ARM GAS  C:\Users\anmh1\AppData\Local\Temp\ccWs8dQr.s 			page 27


 399:Core/Src/stm32f4xx_hal_msp.c ****   if(huart->Instance==USART3)
 937              		.loc 1 399 3 is_stmt 1 view .LVU249
 938              		.loc 1 399 11 is_stmt 0 view .LVU250
 939 0010 0368     		ldr	r3, [r0]
 940              		.loc 1 399 5 view .LVU251
 941 0012 354A     		ldr	r2, .L65
 942 0014 9342     		cmp	r3, r2
 943 0016 04D0     		beq	.L62
 400:Core/Src/stm32f4xx_hal_msp.c ****   {
 401:Core/Src/stm32f4xx_hal_msp.c ****   /* USER CODE BEGIN USART3_MspInit 0 */
 402:Core/Src/stm32f4xx_hal_msp.c **** 
 403:Core/Src/stm32f4xx_hal_msp.c ****   /* USER CODE END USART3_MspInit 0 */
 404:Core/Src/stm32f4xx_hal_msp.c ****     /* Peripheral clock enable */
 405:Core/Src/stm32f4xx_hal_msp.c ****     __HAL_RCC_USART3_CLK_ENABLE();
 406:Core/Src/stm32f4xx_hal_msp.c **** 
 407:Core/Src/stm32f4xx_hal_msp.c ****     __HAL_RCC_GPIOB_CLK_ENABLE();
 408:Core/Src/stm32f4xx_hal_msp.c ****     /**USART3 GPIO Configuration
 409:Core/Src/stm32f4xx_hal_msp.c ****     PB10     ------> USART3_TX
 410:Core/Src/stm32f4xx_hal_msp.c ****     PB11     ------> USART3_RX
 411:Core/Src/stm32f4xx_hal_msp.c ****     */
 412:Core/Src/stm32f4xx_hal_msp.c ****     GPIO_InitStruct.Pin = GPIO_PIN_10|GPIO_PIN_11;
 413:Core/Src/stm32f4xx_hal_msp.c ****     GPIO_InitStruct.Mode = GPIO_MODE_AF_PP;
 414:Core/Src/stm32f4xx_hal_msp.c ****     GPIO_InitStruct.Pull = GPIO_NOPULL;
 415:Core/Src/stm32f4xx_hal_msp.c ****     GPIO_InitStruct.Speed = GPIO_SPEED_FREQ_VERY_HIGH;
 416:Core/Src/stm32f4xx_hal_msp.c ****     GPIO_InitStruct.Alternate = GPIO_AF7_USART3;
 417:Core/Src/stm32f4xx_hal_msp.c ****     HAL_GPIO_Init(GPIOB, &GPIO_InitStruct);
 418:Core/Src/stm32f4xx_hal_msp.c **** 
 419:Core/Src/stm32f4xx_hal_msp.c ****     /* USART3 DMA Init */
 420:Core/Src/stm32f4xx_hal_msp.c ****     /* USART3_RX Init */
 421:Core/Src/stm32f4xx_hal_msp.c ****     hdma_usart3_rx.Instance = DMA1_Stream1;
 422:Core/Src/stm32f4xx_hal_msp.c ****     hdma_usart3_rx.Init.Channel = DMA_CHANNEL_4;
 423:Core/Src/stm32f4xx_hal_msp.c ****     hdma_usart3_rx.Init.Direction = DMA_PERIPH_TO_MEMORY;
 424:Core/Src/stm32f4xx_hal_msp.c ****     hdma_usart3_rx.Init.PeriphInc = DMA_PINC_DISABLE;
 425:Core/Src/stm32f4xx_hal_msp.c ****     hdma_usart3_rx.Init.MemInc = DMA_MINC_ENABLE;
 426:Core/Src/stm32f4xx_hal_msp.c ****     hdma_usart3_rx.Init.PeriphDataAlignment = DMA_PDATAALIGN_BYTE;
 427:Core/Src/stm32f4xx_hal_msp.c ****     hdma_usart3_rx.Init.MemDataAlignment = DMA_MDATAALIGN_BYTE;
 428:Core/Src/stm32f4xx_hal_msp.c ****     hdma_usart3_rx.Init.Mode = DMA_NORMAL;
 429:Core/Src/stm32f4xx_hal_msp.c ****     hdma_usart3_rx.Init.Priority = DMA_PRIORITY_LOW;
 430:Core/Src/stm32f4xx_hal_msp.c ****     hdma_usart3_rx.Init.FIFOMode = DMA_FIFOMODE_DISABLE;
 431:Core/Src/stm32f4xx_hal_msp.c ****     if (HAL_DMA_Init(&hdma_usart3_rx) != HAL_OK)
 432:Core/Src/stm32f4xx_hal_msp.c ****     {
 433:Core/Src/stm32f4xx_hal_msp.c ****       Error_Handler();
 434:Core/Src/stm32f4xx_hal_msp.c ****     }
 435:Core/Src/stm32f4xx_hal_msp.c **** 
 436:Core/Src/stm32f4xx_hal_msp.c ****     __HAL_LINKDMA(huart,hdmarx,hdma_usart3_rx);
 437:Core/Src/stm32f4xx_hal_msp.c **** 
 438:Core/Src/stm32f4xx_hal_msp.c ****   /* USER CODE BEGIN USART3_MspInit 1 */
 439:Core/Src/stm32f4xx_hal_msp.c **** 
 440:Core/Src/stm32f4xx_hal_msp.c ****   /* USER CODE END USART3_MspInit 1 */
 441:Core/Src/stm32f4xx_hal_msp.c ****   }
 442:Core/Src/stm32f4xx_hal_msp.c ****   else if(huart->Instance==USART6)
 944              		.loc 1 442 8 is_stmt 1 view .LVU252
 945              		.loc 1 442 10 is_stmt 0 view .LVU253
 946 0018 344A     		ldr	r2, .L65+4
 947 001a 9342     		cmp	r3, r2
 948 001c 40D0     		beq	.L63
 949              	.LVL45:
ARM GAS  C:\Users\anmh1\AppData\Local\Temp\ccWs8dQr.s 			page 28


 950              	.L57:
 443:Core/Src/stm32f4xx_hal_msp.c ****   {
 444:Core/Src/stm32f4xx_hal_msp.c ****   /* USER CODE BEGIN USART6_MspInit 0 */
 445:Core/Src/stm32f4xx_hal_msp.c **** 
 446:Core/Src/stm32f4xx_hal_msp.c ****   /* USER CODE END USART6_MspInit 0 */
 447:Core/Src/stm32f4xx_hal_msp.c ****     /* Peripheral clock enable */
 448:Core/Src/stm32f4xx_hal_msp.c ****     __HAL_RCC_USART6_CLK_ENABLE();
 449:Core/Src/stm32f4xx_hal_msp.c **** 
 450:Core/Src/stm32f4xx_hal_msp.c ****     __HAL_RCC_GPIOC_CLK_ENABLE();
 451:Core/Src/stm32f4xx_hal_msp.c ****     /**USART6 GPIO Configuration
 452:Core/Src/stm32f4xx_hal_msp.c ****     PC6     ------> USART6_TX
 453:Core/Src/stm32f4xx_hal_msp.c ****     PC7     ------> USART6_RX
 454:Core/Src/stm32f4xx_hal_msp.c ****     */
 455:Core/Src/stm32f4xx_hal_msp.c ****     GPIO_InitStruct.Pin = GPIO_PIN_6|GPIO_PIN_7;
 456:Core/Src/stm32f4xx_hal_msp.c ****     GPIO_InitStruct.Mode = GPIO_MODE_AF_PP;
 457:Core/Src/stm32f4xx_hal_msp.c ****     GPIO_InitStruct.Pull = GPIO_NOPULL;
 458:Core/Src/stm32f4xx_hal_msp.c ****     GPIO_InitStruct.Speed = GPIO_SPEED_FREQ_VERY_HIGH;
 459:Core/Src/stm32f4xx_hal_msp.c ****     GPIO_InitStruct.Alternate = GPIO_AF8_USART6;
 460:Core/Src/stm32f4xx_hal_msp.c ****     HAL_GPIO_Init(GPIOC, &GPIO_InitStruct);
 461:Core/Src/stm32f4xx_hal_msp.c **** 
 462:Core/Src/stm32f4xx_hal_msp.c ****   /* USER CODE BEGIN USART6_MspInit 1 */
 463:Core/Src/stm32f4xx_hal_msp.c **** 
 464:Core/Src/stm32f4xx_hal_msp.c ****   /* USER CODE END USART6_MspInit 1 */
 465:Core/Src/stm32f4xx_hal_msp.c ****   }
 466:Core/Src/stm32f4xx_hal_msp.c **** 
 467:Core/Src/stm32f4xx_hal_msp.c **** }
 951              		.loc 1 467 1 view .LVU254
 952 001e 0BB0     		add	sp, sp, #44
 953              		.cfi_remember_state
 954              		.cfi_def_cfa_offset 12
 955              		@ sp needed
 956 0020 30BD     		pop	{r4, r5, pc}
 957              	.LVL46:
 958              	.L62:
 959              		.cfi_restore_state
 960              		.loc 1 467 1 view .LVU255
 961 0022 0446     		mov	r4, r0
 405:Core/Src/stm32f4xx_hal_msp.c **** 
 962              		.loc 1 405 5 is_stmt 1 view .LVU256
 963              	.LBB16:
 405:Core/Src/stm32f4xx_hal_msp.c **** 
 964              		.loc 1 405 5 view .LVU257
 965 0024 0025     		movs	r5, #0
 966 0026 0195     		str	r5, [sp, #4]
 405:Core/Src/stm32f4xx_hal_msp.c **** 
 967              		.loc 1 405 5 view .LVU258
 968 0028 314B     		ldr	r3, .L65+8
 969 002a 1A6C     		ldr	r2, [r3, #64]
 970 002c 42F48022 		orr	r2, r2, #262144
 971 0030 1A64     		str	r2, [r3, #64]
 405:Core/Src/stm32f4xx_hal_msp.c **** 
 972              		.loc 1 405 5 view .LVU259
 973 0032 1A6C     		ldr	r2, [r3, #64]
 974 0034 02F48022 		and	r2, r2, #262144
 975 0038 0192     		str	r2, [sp, #4]
 405:Core/Src/stm32f4xx_hal_msp.c **** 
 976              		.loc 1 405 5 view .LVU260
ARM GAS  C:\Users\anmh1\AppData\Local\Temp\ccWs8dQr.s 			page 29


 977 003a 019A     		ldr	r2, [sp, #4]
 978              	.LBE16:
 405:Core/Src/stm32f4xx_hal_msp.c **** 
 979              		.loc 1 405 5 view .LVU261
 407:Core/Src/stm32f4xx_hal_msp.c ****     /**USART3 GPIO Configuration
 980              		.loc 1 407 5 view .LVU262
 981              	.LBB17:
 407:Core/Src/stm32f4xx_hal_msp.c ****     /**USART3 GPIO Configuration
 982              		.loc 1 407 5 view .LVU263
 983 003c 0295     		str	r5, [sp, #8]
 407:Core/Src/stm32f4xx_hal_msp.c ****     /**USART3 GPIO Configuration
 984              		.loc 1 407 5 view .LVU264
 985 003e 1A6B     		ldr	r2, [r3, #48]
 986 0040 42F00202 		orr	r2, r2, #2
 987 0044 1A63     		str	r2, [r3, #48]
 407:Core/Src/stm32f4xx_hal_msp.c ****     /**USART3 GPIO Configuration
 988              		.loc 1 407 5 view .LVU265
 989 0046 1B6B     		ldr	r3, [r3, #48]
 990 0048 03F00203 		and	r3, r3, #2
 991 004c 0293     		str	r3, [sp, #8]
 407:Core/Src/stm32f4xx_hal_msp.c ****     /**USART3 GPIO Configuration
 992              		.loc 1 407 5 view .LVU266
 993 004e 029B     		ldr	r3, [sp, #8]
 994              	.LBE17:
 407:Core/Src/stm32f4xx_hal_msp.c ****     /**USART3 GPIO Configuration
 995              		.loc 1 407 5 view .LVU267
 412:Core/Src/stm32f4xx_hal_msp.c ****     GPIO_InitStruct.Mode = GPIO_MODE_AF_PP;
 996              		.loc 1 412 5 view .LVU268
 412:Core/Src/stm32f4xx_hal_msp.c ****     GPIO_InitStruct.Mode = GPIO_MODE_AF_PP;
 997              		.loc 1 412 25 is_stmt 0 view .LVU269
 998 0050 4FF44063 		mov	r3, #3072
 999 0054 0593     		str	r3, [sp, #20]
 413:Core/Src/stm32f4xx_hal_msp.c ****     GPIO_InitStruct.Pull = GPIO_NOPULL;
 1000              		.loc 1 413 5 is_stmt 1 view .LVU270
 413:Core/Src/stm32f4xx_hal_msp.c ****     GPIO_InitStruct.Pull = GPIO_NOPULL;
 1001              		.loc 1 413 26 is_stmt 0 view .LVU271
 1002 0056 0223     		movs	r3, #2
 1003 0058 0693     		str	r3, [sp, #24]
 414:Core/Src/stm32f4xx_hal_msp.c ****     GPIO_InitStruct.Speed = GPIO_SPEED_FREQ_VERY_HIGH;
 1004              		.loc 1 414 5 is_stmt 1 view .LVU272
 414:Core/Src/stm32f4xx_hal_msp.c ****     GPIO_InitStruct.Speed = GPIO_SPEED_FREQ_VERY_HIGH;
 1005              		.loc 1 414 26 is_stmt 0 view .LVU273
 1006 005a 0795     		str	r5, [sp, #28]
 415:Core/Src/stm32f4xx_hal_msp.c ****     GPIO_InitStruct.Alternate = GPIO_AF7_USART3;
 1007              		.loc 1 415 5 is_stmt 1 view .LVU274
 415:Core/Src/stm32f4xx_hal_msp.c ****     GPIO_InitStruct.Alternate = GPIO_AF7_USART3;
 1008              		.loc 1 415 27 is_stmt 0 view .LVU275
 1009 005c 0323     		movs	r3, #3
 1010 005e 0893     		str	r3, [sp, #32]
 416:Core/Src/stm32f4xx_hal_msp.c ****     HAL_GPIO_Init(GPIOB, &GPIO_InitStruct);
 1011              		.loc 1 416 5 is_stmt 1 view .LVU276
 416:Core/Src/stm32f4xx_hal_msp.c ****     HAL_GPIO_Init(GPIOB, &GPIO_InitStruct);
 1012              		.loc 1 416 31 is_stmt 0 view .LVU277
 1013 0060 0723     		movs	r3, #7
 1014 0062 0993     		str	r3, [sp, #36]
 417:Core/Src/stm32f4xx_hal_msp.c **** 
 1015              		.loc 1 417 5 is_stmt 1 view .LVU278
ARM GAS  C:\Users\anmh1\AppData\Local\Temp\ccWs8dQr.s 			page 30


 1016 0064 05A9     		add	r1, sp, #20
 1017 0066 2348     		ldr	r0, .L65+12
 1018              	.LVL47:
 417:Core/Src/stm32f4xx_hal_msp.c **** 
 1019              		.loc 1 417 5 is_stmt 0 view .LVU279
 1020 0068 FFF7FEFF 		bl	HAL_GPIO_Init
 1021              	.LVL48:
 421:Core/Src/stm32f4xx_hal_msp.c ****     hdma_usart3_rx.Init.Channel = DMA_CHANNEL_4;
 1022              		.loc 1 421 5 is_stmt 1 view .LVU280
 421:Core/Src/stm32f4xx_hal_msp.c ****     hdma_usart3_rx.Init.Channel = DMA_CHANNEL_4;
 1023              		.loc 1 421 29 is_stmt 0 view .LVU281
 1024 006c 2248     		ldr	r0, .L65+16
 1025 006e 234B     		ldr	r3, .L65+20
 1026 0070 0360     		str	r3, [r0]
 422:Core/Src/stm32f4xx_hal_msp.c ****     hdma_usart3_rx.Init.Direction = DMA_PERIPH_TO_MEMORY;
 1027              		.loc 1 422 5 is_stmt 1 view .LVU282
 422:Core/Src/stm32f4xx_hal_msp.c ****     hdma_usart3_rx.Init.Direction = DMA_PERIPH_TO_MEMORY;
 1028              		.loc 1 422 33 is_stmt 0 view .LVU283
 1029 0072 4FF00063 		mov	r3, #134217728
 1030 0076 4360     		str	r3, [r0, #4]
 423:Core/Src/stm32f4xx_hal_msp.c ****     hdma_usart3_rx.Init.PeriphInc = DMA_PINC_DISABLE;
 1031              		.loc 1 423 5 is_stmt 1 view .LVU284
 423:Core/Src/stm32f4xx_hal_msp.c ****     hdma_usart3_rx.Init.PeriphInc = DMA_PINC_DISABLE;
 1032              		.loc 1 423 35 is_stmt 0 view .LVU285
 1033 0078 8560     		str	r5, [r0, #8]
 424:Core/Src/stm32f4xx_hal_msp.c ****     hdma_usart3_rx.Init.MemInc = DMA_MINC_ENABLE;
 1034              		.loc 1 424 5 is_stmt 1 view .LVU286
 424:Core/Src/stm32f4xx_hal_msp.c ****     hdma_usart3_rx.Init.MemInc = DMA_MINC_ENABLE;
 1035              		.loc 1 424 35 is_stmt 0 view .LVU287
 1036 007a C560     		str	r5, [r0, #12]
 425:Core/Src/stm32f4xx_hal_msp.c ****     hdma_usart3_rx.Init.PeriphDataAlignment = DMA_PDATAALIGN_BYTE;
 1037              		.loc 1 425 5 is_stmt 1 view .LVU288
 425:Core/Src/stm32f4xx_hal_msp.c ****     hdma_usart3_rx.Init.PeriphDataAlignment = DMA_PDATAALIGN_BYTE;
 1038              		.loc 1 425 32 is_stmt 0 view .LVU289
 1039 007c 4FF48063 		mov	r3, #1024
 1040 0080 0361     		str	r3, [r0, #16]
 426:Core/Src/stm32f4xx_hal_msp.c ****     hdma_usart3_rx.Init.MemDataAlignment = DMA_MDATAALIGN_BYTE;
 1041              		.loc 1 426 5 is_stmt 1 view .LVU290
 426:Core/Src/stm32f4xx_hal_msp.c ****     hdma_usart3_rx.Init.MemDataAlignment = DMA_MDATAALIGN_BYTE;
 1042              		.loc 1 426 45 is_stmt 0 view .LVU291
 1043 0082 4561     		str	r5, [r0, #20]
 427:Core/Src/stm32f4xx_hal_msp.c ****     hdma_usart3_rx.Init.Mode = DMA_NORMAL;
 1044              		.loc 1 427 5 is_stmt 1 view .LVU292
 427:Core/Src/stm32f4xx_hal_msp.c ****     hdma_usart3_rx.Init.Mode = DMA_NORMAL;
 1045              		.loc 1 427 42 is_stmt 0 view .LVU293
 1046 0084 8561     		str	r5, [r0, #24]
 428:Core/Src/stm32f4xx_hal_msp.c ****     hdma_usart3_rx.Init.Priority = DMA_PRIORITY_LOW;
 1047              		.loc 1 428 5 is_stmt 1 view .LVU294
 428:Core/Src/stm32f4xx_hal_msp.c ****     hdma_usart3_rx.Init.Priority = DMA_PRIORITY_LOW;
 1048              		.loc 1 428 30 is_stmt 0 view .LVU295
 1049 0086 C561     		str	r5, [r0, #28]
 429:Core/Src/stm32f4xx_hal_msp.c ****     hdma_usart3_rx.Init.FIFOMode = DMA_FIFOMODE_DISABLE;
 1050              		.loc 1 429 5 is_stmt 1 view .LVU296
 429:Core/Src/stm32f4xx_hal_msp.c ****     hdma_usart3_rx.Init.FIFOMode = DMA_FIFOMODE_DISABLE;
 1051              		.loc 1 429 34 is_stmt 0 view .LVU297
 1052 0088 0562     		str	r5, [r0, #32]
 430:Core/Src/stm32f4xx_hal_msp.c ****     if (HAL_DMA_Init(&hdma_usart3_rx) != HAL_OK)
ARM GAS  C:\Users\anmh1\AppData\Local\Temp\ccWs8dQr.s 			page 31


 1053              		.loc 1 430 5 is_stmt 1 view .LVU298
 430:Core/Src/stm32f4xx_hal_msp.c ****     if (HAL_DMA_Init(&hdma_usart3_rx) != HAL_OK)
 1054              		.loc 1 430 34 is_stmt 0 view .LVU299
 1055 008a 4562     		str	r5, [r0, #36]
 431:Core/Src/stm32f4xx_hal_msp.c ****     {
 1056              		.loc 1 431 5 is_stmt 1 view .LVU300
 431:Core/Src/stm32f4xx_hal_msp.c ****     {
 1057              		.loc 1 431 9 is_stmt 0 view .LVU301
 1058 008c FFF7FEFF 		bl	HAL_DMA_Init
 1059              	.LVL49:
 431:Core/Src/stm32f4xx_hal_msp.c ****     {
 1060              		.loc 1 431 8 view .LVU302
 1061 0090 18B9     		cbnz	r0, .L64
 1062              	.L59:
 436:Core/Src/stm32f4xx_hal_msp.c **** 
 1063              		.loc 1 436 5 is_stmt 1 view .LVU303
 436:Core/Src/stm32f4xx_hal_msp.c **** 
 1064              		.loc 1 436 5 view .LVU304
 1065 0092 194B     		ldr	r3, .L65+16
 1066 0094 A363     		str	r3, [r4, #56]
 436:Core/Src/stm32f4xx_hal_msp.c **** 
 1067              		.loc 1 436 5 view .LVU305
 1068 0096 9C63     		str	r4, [r3, #56]
 436:Core/Src/stm32f4xx_hal_msp.c **** 
 1069              		.loc 1 436 5 view .LVU306
 1070 0098 C1E7     		b	.L57
 1071              	.L64:
 433:Core/Src/stm32f4xx_hal_msp.c ****     }
 1072              		.loc 1 433 7 view .LVU307
 1073 009a FFF7FEFF 		bl	Error_Handler
 1074              	.LVL50:
 1075 009e F8E7     		b	.L59
 1076              	.LVL51:
 1077              	.L63:
 448:Core/Src/stm32f4xx_hal_msp.c **** 
 1078              		.loc 1 448 5 view .LVU308
 1079              	.LBB18:
 448:Core/Src/stm32f4xx_hal_msp.c **** 
 1080              		.loc 1 448 5 view .LVU309
 1081 00a0 0022     		movs	r2, #0
 1082 00a2 0392     		str	r2, [sp, #12]
 448:Core/Src/stm32f4xx_hal_msp.c **** 
 1083              		.loc 1 448 5 view .LVU310
 1084 00a4 124B     		ldr	r3, .L65+8
 1085 00a6 596C     		ldr	r1, [r3, #68]
 1086 00a8 41F02001 		orr	r1, r1, #32
 1087 00ac 5964     		str	r1, [r3, #68]
 448:Core/Src/stm32f4xx_hal_msp.c **** 
 1088              		.loc 1 448 5 view .LVU311
 1089 00ae 596C     		ldr	r1, [r3, #68]
 1090 00b0 01F02001 		and	r1, r1, #32
 1091 00b4 0391     		str	r1, [sp, #12]
 448:Core/Src/stm32f4xx_hal_msp.c **** 
 1092              		.loc 1 448 5 view .LVU312
 1093 00b6 0399     		ldr	r1, [sp, #12]
 1094              	.LBE18:
 448:Core/Src/stm32f4xx_hal_msp.c **** 
ARM GAS  C:\Users\anmh1\AppData\Local\Temp\ccWs8dQr.s 			page 32


 1095              		.loc 1 448 5 view .LVU313
 450:Core/Src/stm32f4xx_hal_msp.c ****     /**USART6 GPIO Configuration
 1096              		.loc 1 450 5 view .LVU314
 1097              	.LBB19:
 450:Core/Src/stm32f4xx_hal_msp.c ****     /**USART6 GPIO Configuration
 1098              		.loc 1 450 5 view .LVU315
 1099 00b8 0492     		str	r2, [sp, #16]
 450:Core/Src/stm32f4xx_hal_msp.c ****     /**USART6 GPIO Configuration
 1100              		.loc 1 450 5 view .LVU316
 1101 00ba 196B     		ldr	r1, [r3, #48]
 1102 00bc 41F00401 		orr	r1, r1, #4
 1103 00c0 1963     		str	r1, [r3, #48]
 450:Core/Src/stm32f4xx_hal_msp.c ****     /**USART6 GPIO Configuration
 1104              		.loc 1 450 5 view .LVU317
 1105 00c2 1B6B     		ldr	r3, [r3, #48]
 1106 00c4 03F00403 		and	r3, r3, #4
 1107 00c8 0493     		str	r3, [sp, #16]
 450:Core/Src/stm32f4xx_hal_msp.c ****     /**USART6 GPIO Configuration
 1108              		.loc 1 450 5 view .LVU318
 1109 00ca 049B     		ldr	r3, [sp, #16]
 1110              	.LBE19:
 450:Core/Src/stm32f4xx_hal_msp.c ****     /**USART6 GPIO Configuration
 1111              		.loc 1 450 5 view .LVU319
 455:Core/Src/stm32f4xx_hal_msp.c ****     GPIO_InitStruct.Mode = GPIO_MODE_AF_PP;
 1112              		.loc 1 455 5 view .LVU320
 455:Core/Src/stm32f4xx_hal_msp.c ****     GPIO_InitStruct.Mode = GPIO_MODE_AF_PP;
 1113              		.loc 1 455 25 is_stmt 0 view .LVU321
 1114 00cc C023     		movs	r3, #192
 1115 00ce 0593     		str	r3, [sp, #20]
 456:Core/Src/stm32f4xx_hal_msp.c ****     GPIO_InitStruct.Pull = GPIO_NOPULL;
 1116              		.loc 1 456 5 is_stmt 1 view .LVU322
 456:Core/Src/stm32f4xx_hal_msp.c ****     GPIO_InitStruct.Pull = GPIO_NOPULL;
 1117              		.loc 1 456 26 is_stmt 0 view .LVU323
 1118 00d0 0223     		movs	r3, #2
 1119 00d2 0693     		str	r3, [sp, #24]
 457:Core/Src/stm32f4xx_hal_msp.c ****     GPIO_InitStruct.Speed = GPIO_SPEED_FREQ_VERY_HIGH;
 1120              		.loc 1 457 5 is_stmt 1 view .LVU324
 457:Core/Src/stm32f4xx_hal_msp.c ****     GPIO_InitStruct.Speed = GPIO_SPEED_FREQ_VERY_HIGH;
 1121              		.loc 1 457 26 is_stmt 0 view .LVU325
 1122 00d4 0792     		str	r2, [sp, #28]
 458:Core/Src/stm32f4xx_hal_msp.c ****     GPIO_InitStruct.Alternate = GPIO_AF8_USART6;
 1123              		.loc 1 458 5 is_stmt 1 view .LVU326
 458:Core/Src/stm32f4xx_hal_msp.c ****     GPIO_InitStruct.Alternate = GPIO_AF8_USART6;
 1124              		.loc 1 458 27 is_stmt 0 view .LVU327
 1125 00d6 0323     		movs	r3, #3
 1126 00d8 0893     		str	r3, [sp, #32]
 459:Core/Src/stm32f4xx_hal_msp.c ****     HAL_GPIO_Init(GPIOC, &GPIO_InitStruct);
 1127              		.loc 1 459 5 is_stmt 1 view .LVU328
 459:Core/Src/stm32f4xx_hal_msp.c ****     HAL_GPIO_Init(GPIOC, &GPIO_InitStruct);
 1128              		.loc 1 459 31 is_stmt 0 view .LVU329
 1129 00da 0823     		movs	r3, #8
 1130 00dc 0993     		str	r3, [sp, #36]
 460:Core/Src/stm32f4xx_hal_msp.c **** 
 1131              		.loc 1 460 5 is_stmt 1 view .LVU330
 1132 00de 05A9     		add	r1, sp, #20
 1133 00e0 0748     		ldr	r0, .L65+24
 1134              	.LVL52:
ARM GAS  C:\Users\anmh1\AppData\Local\Temp\ccWs8dQr.s 			page 33


 460:Core/Src/stm32f4xx_hal_msp.c **** 
 1135              		.loc 1 460 5 is_stmt 0 view .LVU331
 1136 00e2 FFF7FEFF 		bl	HAL_GPIO_Init
 1137              	.LVL53:
 1138              		.loc 1 467 1 view .LVU332
 1139 00e6 9AE7     		b	.L57
 1140              	.L66:
 1141              		.align	2
 1142              	.L65:
 1143 00e8 00480040 		.word	1073760256
 1144 00ec 00140140 		.word	1073812480
 1145 00f0 00380240 		.word	1073887232
 1146 00f4 00040240 		.word	1073873920
 1147 00f8 00000000 		.word	hdma_usart3_rx
 1148 00fc 28600240 		.word	1073897512
 1149 0100 00080240 		.word	1073874944
 1150              		.cfi_endproc
 1151              	.LFE138:
 1153              		.section	.text.HAL_UART_MspDeInit,"ax",%progbits
 1154              		.align	1
 1155              		.global	HAL_UART_MspDeInit
 1156              		.syntax unified
 1157              		.thumb
 1158              		.thumb_func
 1159              		.fpu fpv4-sp-d16
 1161              	HAL_UART_MspDeInit:
 1162              	.LVL54:
 1163              	.LFB139:
 468:Core/Src/stm32f4xx_hal_msp.c **** 
 469:Core/Src/stm32f4xx_hal_msp.c **** /**
 470:Core/Src/stm32f4xx_hal_msp.c **** * @brief UART MSP De-Initialization
 471:Core/Src/stm32f4xx_hal_msp.c **** * This function freeze the hardware resources used in this example
 472:Core/Src/stm32f4xx_hal_msp.c **** * @param huart: UART handle pointer
 473:Core/Src/stm32f4xx_hal_msp.c **** * @retval None
 474:Core/Src/stm32f4xx_hal_msp.c **** */
 475:Core/Src/stm32f4xx_hal_msp.c **** void HAL_UART_MspDeInit(UART_HandleTypeDef* huart)
 476:Core/Src/stm32f4xx_hal_msp.c **** {
 1164              		.loc 1 476 1 is_stmt 1 view -0
 1165              		.cfi_startproc
 1166              		@ args = 0, pretend = 0, frame = 0
 1167              		@ frame_needed = 0, uses_anonymous_args = 0
 1168              		.loc 1 476 1 is_stmt 0 view .LVU334
 1169 0000 10B5     		push	{r4, lr}
 1170              		.cfi_def_cfa_offset 8
 1171              		.cfi_offset 4, -8
 1172              		.cfi_offset 14, -4
 477:Core/Src/stm32f4xx_hal_msp.c ****   if(huart->Instance==USART3)
 1173              		.loc 1 477 3 is_stmt 1 view .LVU335
 1174              		.loc 1 477 11 is_stmt 0 view .LVU336
 1175 0002 0368     		ldr	r3, [r0]
 1176              		.loc 1 477 5 view .LVU337
 1177 0004 104A     		ldr	r2, .L73
 1178 0006 9342     		cmp	r3, r2
 1179 0008 03D0     		beq	.L71
 478:Core/Src/stm32f4xx_hal_msp.c ****   {
 479:Core/Src/stm32f4xx_hal_msp.c ****   /* USER CODE BEGIN USART3_MspDeInit 0 */
 480:Core/Src/stm32f4xx_hal_msp.c **** 
ARM GAS  C:\Users\anmh1\AppData\Local\Temp\ccWs8dQr.s 			page 34


 481:Core/Src/stm32f4xx_hal_msp.c ****   /* USER CODE END USART3_MspDeInit 0 */
 482:Core/Src/stm32f4xx_hal_msp.c ****     /* Peripheral clock disable */
 483:Core/Src/stm32f4xx_hal_msp.c ****     __HAL_RCC_USART3_CLK_DISABLE();
 484:Core/Src/stm32f4xx_hal_msp.c **** 
 485:Core/Src/stm32f4xx_hal_msp.c ****     /**USART3 GPIO Configuration
 486:Core/Src/stm32f4xx_hal_msp.c ****     PB10     ------> USART3_TX
 487:Core/Src/stm32f4xx_hal_msp.c ****     PB11     ------> USART3_RX
 488:Core/Src/stm32f4xx_hal_msp.c ****     */
 489:Core/Src/stm32f4xx_hal_msp.c ****     HAL_GPIO_DeInit(GPIOB, GPIO_PIN_10|GPIO_PIN_11);
 490:Core/Src/stm32f4xx_hal_msp.c **** 
 491:Core/Src/stm32f4xx_hal_msp.c ****     /* USART3 DMA DeInit */
 492:Core/Src/stm32f4xx_hal_msp.c ****     HAL_DMA_DeInit(huart->hdmarx);
 493:Core/Src/stm32f4xx_hal_msp.c ****   /* USER CODE BEGIN USART3_MspDeInit 1 */
 494:Core/Src/stm32f4xx_hal_msp.c **** 
 495:Core/Src/stm32f4xx_hal_msp.c ****   /* USER CODE END USART3_MspDeInit 1 */
 496:Core/Src/stm32f4xx_hal_msp.c ****   }
 497:Core/Src/stm32f4xx_hal_msp.c ****   else if(huart->Instance==USART6)
 1180              		.loc 1 497 8 is_stmt 1 view .LVU338
 1181              		.loc 1 497 10 is_stmt 0 view .LVU339
 1182 000a 104A     		ldr	r2, .L73+4
 1183 000c 9342     		cmp	r3, r2
 1184 000e 10D0     		beq	.L72
 1185              	.LVL55:
 1186              	.L67:
 498:Core/Src/stm32f4xx_hal_msp.c ****   {
 499:Core/Src/stm32f4xx_hal_msp.c ****   /* USER CODE BEGIN USART6_MspDeInit 0 */
 500:Core/Src/stm32f4xx_hal_msp.c **** 
 501:Core/Src/stm32f4xx_hal_msp.c ****   /* USER CODE END USART6_MspDeInit 0 */
 502:Core/Src/stm32f4xx_hal_msp.c ****     /* Peripheral clock disable */
 503:Core/Src/stm32f4xx_hal_msp.c ****     __HAL_RCC_USART6_CLK_DISABLE();
 504:Core/Src/stm32f4xx_hal_msp.c **** 
 505:Core/Src/stm32f4xx_hal_msp.c ****     /**USART6 GPIO Configuration
 506:Core/Src/stm32f4xx_hal_msp.c ****     PC6     ------> USART6_TX
 507:Core/Src/stm32f4xx_hal_msp.c ****     PC7     ------> USART6_RX
 508:Core/Src/stm32f4xx_hal_msp.c ****     */
 509:Core/Src/stm32f4xx_hal_msp.c ****     HAL_GPIO_DeInit(GPIOC, GPIO_PIN_6|GPIO_PIN_7);
 510:Core/Src/stm32f4xx_hal_msp.c **** 
 511:Core/Src/stm32f4xx_hal_msp.c ****   /* USER CODE BEGIN USART6_MspDeInit 1 */
 512:Core/Src/stm32f4xx_hal_msp.c **** 
 513:Core/Src/stm32f4xx_hal_msp.c ****   /* USER CODE END USART6_MspDeInit 1 */
 514:Core/Src/stm32f4xx_hal_msp.c ****   }
 515:Core/Src/stm32f4xx_hal_msp.c **** 
 516:Core/Src/stm32f4xx_hal_msp.c **** }
 1187              		.loc 1 516 1 view .LVU340
 1188 0010 10BD     		pop	{r4, pc}
 1189              	.LVL56:
 1190              	.L71:
 1191              		.loc 1 516 1 view .LVU341
 1192 0012 0446     		mov	r4, r0
 483:Core/Src/stm32f4xx_hal_msp.c **** 
 1193              		.loc 1 483 5 is_stmt 1 view .LVU342
 1194 0014 02F5F832 		add	r2, r2, #126976
 1195 0018 136C     		ldr	r3, [r2, #64]
 1196 001a 23F48023 		bic	r3, r3, #262144
 1197 001e 1364     		str	r3, [r2, #64]
 489:Core/Src/stm32f4xx_hal_msp.c **** 
 1198              		.loc 1 489 5 view .LVU343
ARM GAS  C:\Users\anmh1\AppData\Local\Temp\ccWs8dQr.s 			page 35


 1199 0020 4FF44061 		mov	r1, #3072
 1200 0024 0A48     		ldr	r0, .L73+8
 1201              	.LVL57:
 489:Core/Src/stm32f4xx_hal_msp.c **** 
 1202              		.loc 1 489 5 is_stmt 0 view .LVU344
 1203 0026 FFF7FEFF 		bl	HAL_GPIO_DeInit
 1204              	.LVL58:
 492:Core/Src/stm32f4xx_hal_msp.c ****   /* USER CODE BEGIN USART3_MspDeInit 1 */
 1205              		.loc 1 492 5 is_stmt 1 view .LVU345
 1206 002a A06B     		ldr	r0, [r4, #56]
 1207 002c FFF7FEFF 		bl	HAL_DMA_DeInit
 1208              	.LVL59:
 1209 0030 EEE7     		b	.L67
 1210              	.LVL60:
 1211              	.L72:
 503:Core/Src/stm32f4xx_hal_msp.c **** 
 1212              		.loc 1 503 5 view .LVU346
 1213 0032 02F59232 		add	r2, r2, #74752
 1214 0036 536C     		ldr	r3, [r2, #68]
 1215 0038 23F02003 		bic	r3, r3, #32
 1216 003c 5364     		str	r3, [r2, #68]
 509:Core/Src/stm32f4xx_hal_msp.c **** 
 1217              		.loc 1 509 5 view .LVU347
 1218 003e C021     		movs	r1, #192
 1219 0040 0448     		ldr	r0, .L73+12
 1220              	.LVL61:
 509:Core/Src/stm32f4xx_hal_msp.c **** 
 1221              		.loc 1 509 5 is_stmt 0 view .LVU348
 1222 0042 FFF7FEFF 		bl	HAL_GPIO_DeInit
 1223              	.LVL62:
 1224              		.loc 1 516 1 view .LVU349
 1225 0046 E3E7     		b	.L67
 1226              	.L74:
 1227              		.align	2
 1228              	.L73:
 1229 0048 00480040 		.word	1073760256
 1230 004c 00140140 		.word	1073812480
 1231 0050 00040240 		.word	1073873920
 1232 0054 00080240 		.word	1073874944
 1233              		.cfi_endproc
 1234              	.LFE139:
 1236              		.text
 1237              	.Letext0:
 1238              		.file 2 "c:\\make\\test\\gcc-arm-none-eabi-9-2019-q4-major-win32\\arm-none-eabi\\include\\machine\
 1239              		.file 3 "c:\\make\\test\\gcc-arm-none-eabi-9-2019-q4-major-win32\\arm-none-eabi\\include\\sys\\_st
 1240              		.file 4 "Drivers/CMSIS/Include/core_cm4.h"
 1241              		.file 5 "Drivers/CMSIS/Device/ST/STM32F4xx/Include/system_stm32f4xx.h"
 1242              		.file 6 "Drivers/CMSIS/Device/ST/STM32F4xx/Include/stm32f407xx.h"
 1243              		.file 7 "Drivers/STM32F4xx_HAL_Driver/Inc/stm32f4xx_hal_def.h"
 1244              		.file 8 "Drivers/STM32F4xx_HAL_Driver/Inc/stm32f4xx_hal_gpio.h"
 1245              		.file 9 "Drivers/STM32F4xx_HAL_Driver/Inc/stm32f4xx_hal_dma.h"
 1246              		.file 10 "Drivers/STM32F4xx_HAL_Driver/Inc/stm32f4xx_hal_i2c.h"
 1247              		.file 11 "Drivers/STM32F4xx_HAL_Driver/Inc/stm32f4xx_hal_tim.h"
 1248              		.file 12 "Drivers/STM32F4xx_HAL_Driver/Inc/stm32f4xx_hal_uart.h"
 1249              		.file 13 "Drivers/STM32F4xx_HAL_Driver/Inc/stm32f4xx_hal.h"
 1250              		.file 14 "Core/Inc/main.h"
ARM GAS  C:\Users\anmh1\AppData\Local\Temp\ccWs8dQr.s 			page 36


DEFINED SYMBOLS
                            *ABS*:00000000 stm32f4xx_hal_msp.c
C:\Users\anmh1\AppData\Local\Temp\ccWs8dQr.s:18     .text.HAL_MspInit:00000000 $t
C:\Users\anmh1\AppData\Local\Temp\ccWs8dQr.s:26     .text.HAL_MspInit:00000000 HAL_MspInit
C:\Users\anmh1\AppData\Local\Temp\ccWs8dQr.s:78     .text.HAL_MspInit:00000034 $d
C:\Users\anmh1\AppData\Local\Temp\ccWs8dQr.s:83     .text.HAL_I2C_MspInit:00000000 $t
C:\Users\anmh1\AppData\Local\Temp\ccWs8dQr.s:90     .text.HAL_I2C_MspInit:00000000 HAL_I2C_MspInit
C:\Users\anmh1\AppData\Local\Temp\ccWs8dQr.s:304    .text.HAL_I2C_MspInit:000000ec $d
C:\Users\anmh1\AppData\Local\Temp\ccWs8dQr.s:314    .text.HAL_I2C_MspDeInit:00000000 $t
C:\Users\anmh1\AppData\Local\Temp\ccWs8dQr.s:321    .text.HAL_I2C_MspDeInit:00000000 HAL_I2C_MspDeInit
C:\Users\anmh1\AppData\Local\Temp\ccWs8dQr.s:394    .text.HAL_I2C_MspDeInit:00000058 $d
C:\Users\anmh1\AppData\Local\Temp\ccWs8dQr.s:403    .text.HAL_TIM_Encoder_MspInit:00000000 $t
C:\Users\anmh1\AppData\Local\Temp\ccWs8dQr.s:410    .text.HAL_TIM_Encoder_MspInit:00000000 HAL_TIM_Encoder_MspInit
C:\Users\anmh1\AppData\Local\Temp\ccWs8dQr.s:618    .text.HAL_TIM_Encoder_MspInit:000000d8 $d
C:\Users\anmh1\AppData\Local\Temp\ccWs8dQr.s:628    .text.HAL_TIM_Base_MspInit:00000000 $t
C:\Users\anmh1\AppData\Local\Temp\ccWs8dQr.s:635    .text.HAL_TIM_Base_MspInit:00000000 HAL_TIM_Base_MspInit
C:\Users\anmh1\AppData\Local\Temp\ccWs8dQr.s:680    .text.HAL_TIM_Base_MspInit:00000028 $d
C:\Users\anmh1\AppData\Local\Temp\ccWs8dQr.s:685    .text.HAL_TIM_MspPostInit:00000000 $t
C:\Users\anmh1\AppData\Local\Temp\ccWs8dQr.s:692    .text.HAL_TIM_MspPostInit:00000000 HAL_TIM_MspPostInit
C:\Users\anmh1\AppData\Local\Temp\ccWs8dQr.s:778    .text.HAL_TIM_MspPostInit:00000050 $d
C:\Users\anmh1\AppData\Local\Temp\ccWs8dQr.s:784    .text.HAL_TIM_Encoder_MspDeInit:00000000 $t
C:\Users\anmh1\AppData\Local\Temp\ccWs8dQr.s:791    .text.HAL_TIM_Encoder_MspDeInit:00000000 HAL_TIM_Encoder_MspDeInit
C:\Users\anmh1\AppData\Local\Temp\ccWs8dQr.s:858    .text.HAL_TIM_Encoder_MspDeInit:0000004c $d
C:\Users\anmh1\AppData\Local\Temp\ccWs8dQr.s:867    .text.HAL_TIM_Base_MspDeInit:00000000 $t
C:\Users\anmh1\AppData\Local\Temp\ccWs8dQr.s:874    .text.HAL_TIM_Base_MspDeInit:00000000 HAL_TIM_Base_MspDeInit
C:\Users\anmh1\AppData\Local\Temp\ccWs8dQr.s:902    .text.HAL_TIM_Base_MspDeInit:00000018 $d
C:\Users\anmh1\AppData\Local\Temp\ccWs8dQr.s:907    .text.HAL_UART_MspInit:00000000 $t
C:\Users\anmh1\AppData\Local\Temp\ccWs8dQr.s:914    .text.HAL_UART_MspInit:00000000 HAL_UART_MspInit
C:\Users\anmh1\AppData\Local\Temp\ccWs8dQr.s:1143   .text.HAL_UART_MspInit:000000e8 $d
C:\Users\anmh1\AppData\Local\Temp\ccWs8dQr.s:1154   .text.HAL_UART_MspDeInit:00000000 $t
C:\Users\anmh1\AppData\Local\Temp\ccWs8dQr.s:1161   .text.HAL_UART_MspDeInit:00000000 HAL_UART_MspDeInit
C:\Users\anmh1\AppData\Local\Temp\ccWs8dQr.s:1229   .text.HAL_UART_MspDeInit:00000048 $d

UNDEFINED SYMBOLS
HAL_GPIO_Init
HAL_GPIO_DeInit
HAL_DMA_Init
Error_Handler
hdma_usart3_rx
HAL_DMA_DeInit
